---
triple:          'arm64-apple-darwin'
binary-path:     main
relocations:
  - { offset: 0x7A55, size: 0x8, addend: 0x0, symName: __ZStL8__ioinit, symObjAddr: 0x28A00, symBinAddr: 0x100020000, symSize: 0x0 }
  - { offset: 0x8006, size: 0x8, addend: 0x0, symName: __ZNSt11_Tuple_implILm1EJSt14default_deleteI4ItemEEEC2EOS3_, symObjAddr: 0x1E8C, symBinAddr: 0x100005374, symSize: 0x18 }
  - { offset: 0x8078, size: 0x8, addend: 0x0, symName: __ZNSt15__uniq_ptr_implI4ItemSt14default_deleteIS0_EEC2EOS3_, symObjAddr: 0x1E50, symBinAddr: 0x100005338, symSize: 0x3C }
  - { offset: 0x80E2, size: 0x8, addend: 0x0, symName: __ZNSt5tupleIJP4ItemSt14default_deleteIS0_EEEC1EOS4_, symObjAddr: 0x1E28, symBinAddr: 0x100005310, symSize: 0x28 }
  - { offset: 0x812B, size: 0x8, addend: 0x0, symName: __ZNSt11_Tuple_implILm0EJP4ItemSt14default_deleteIS0_EEEC2EOS4_, symObjAddr: 0x1DF0, symBinAddr: 0x1000052D8, symSize: 0x38 }
  - { offset: 0x81DF, size: 0x8, addend: 0x0, symName: __ZN10ItemHandleC1EOS_, symObjAddr: 0x1DAC, symBinAddr: 0x100005294, symSize: 0x44 }
  - { offset: 0x8228, size: 0x8, addend: 0x0, symName: __ZNSt10unique_ptrI4ItemSt14default_deleteIS0_EEC1EOS3_, symObjAddr: 0x1D84, symBinAddr: 0x10000526C, symSize: 0x28 }
  - { offset: 0x8271, size: 0x8, addend: 0x0, symName: __ZNSt15__uniq_ptr_dataI4ItemSt14default_deleteIS0_ELb1ELb1EEC1EOS3_, symObjAddr: 0x1D5C, symBinAddr: 0x100005244, symSize: 0x28 }
  - { offset: 0x835F, size: 0x8, addend: 0x0, symName: __ZNSt10_Head_baseILm1ESt14default_deleteI4ItemELb1EE7_M_headERS3_, symObjAddr: 0x1D48, symBinAddr: 0x100005230, symSize: 0x14 }
  - { offset: 0x8386, size: 0x8, addend: 0x0, symName: __ZSt19__relocate_object_aI10ItemHandleS0_SaIS0_EEvPT_PT0_RT1_, symObjAddr: 0x1C58, symBinAddr: 0x100005140, symSize: 0xF0 }
  - { offset: 0x8535, size: 0x8, addend: 0x0, symName: __ZNSt15__new_allocatorI10ItemHandleE10deallocateEPS0_m, symObjAddr: 0x1C1C, symBinAddr: 0x100005104, symSize: 0x3C }
  - { offset: 0x859F, size: 0x8, addend: 0x0, symName: __ZNSt11_Tuple_implILm1EJSt14default_deleteI4ItemEEE7_M_headERS3_, symObjAddr: 0x1C00, symBinAddr: 0x1000050E8, symSize: 0x1C }
  - { offset: 0x85C7, size: 0x8, addend: 0x0, symName: __ZNSt10_Head_baseILm0EP4ItemLb0EE7_M_headERS2_, symObjAddr: 0x1BEC, symBinAddr: 0x1000050D4, symSize: 0x14 }
  - { offset: 0x861E, size: 0x8, addend: 0x0, symName: __ZSt8_DestroyI10ItemHandleEvPT_, symObjAddr: 0x1BCC, symBinAddr: 0x1000050B4, symSize: 0x20 }
  - { offset: 0x866A, size: 0x8, addend: 0x0, symName: __ZSt14__relocate_a_1IP10ItemHandleS1_SaIS0_EET0_T_S4_S3_RT1_, symObjAddr: 0x1B54, symBinAddr: 0x10000503C, symSize: 0x78 }
  - { offset: 0x8781, size: 0x8, addend: 0x0, symName: __ZNSt15__new_allocatorI10ItemHandleE8allocateEmPKv, symObjAddr: 0x1AC4, symBinAddr: 0x100004FAC, symSize: 0x90 }
  - { offset: 0x87F2, size: 0x8, addend: 0x0, symName: __ZNKSt12_Vector_baseI10ItemHandleSaIS0_EE19_M_get_Tp_allocatorEv, symObjAddr: 0x1AB0, symBinAddr: 0x100004F98, symSize: 0x14 }
  - { offset: 0x8816, size: 0x8, addend: 0x0, symName: __ZNSt6vectorI10ItemHandleSaIS0_EE11_S_max_sizeERKS1_, symObjAddr: 0x1A54, symBinAddr: 0x100004F3C, symSize: 0x5C }
  - { offset: 0x88C5, size: 0x8, addend: 0x0, symName: __ZSt12__get_helperILm1ESt14default_deleteI4ItemEJEERT0_RSt11_Tuple_implIXT_EJS3_DpT1_EE, symObjAddr: 0x1A38, symBinAddr: 0x100004F20, symSize: 0x1C }
  - { offset: 0x8905, size: 0x8, addend: 0x0, symName: __ZNSt11_Tuple_implILm0EJP4ItemSt14default_deleteIS0_EEE7_M_headERS4_, symObjAddr: 0x1A1C, symBinAddr: 0x100004F04, symSize: 0x1C }
  - { offset: 0x8961, size: 0x8, addend: 0x0, symName: __ZNSt15__new_allocatorIcE10deallocateEPcm, symObjAddr: 0x19F4, symBinAddr: 0x100004EDC, symSize: 0x28 }
  - { offset: 0x89BF, size: 0x8, addend: 0x0, symName: __ZSt8_DestroyIP10ItemHandleEvT_S2_, symObjAddr: 0x19A4, symBinAddr: 0x100004E8C, symSize: 0x50 }
  - { offset: 0x8A1F, size: 0x8, addend: 0x0, symName: __ZSt12__relocate_aIP10ItemHandleS1_SaIS0_EET0_T_S4_S3_RT1_, symObjAddr: 0x1958, symBinAddr: 0x100004E40, symSize: 0x4C }
  - { offset: 0x8AFC, size: 0x8, addend: 0x0, symName: __ZNSt12_Vector_baseI10ItemHandleSaIS0_EE13_M_deallocateEPS0_m, symObjAddr: 0x1900, symBinAddr: 0x100004DE8, symSize: 0x58 }
  - { offset: 0x8BCE, size: 0x8, addend: 0x0, symName: __ZSt3maxImERKT_S2_S2_, symObjAddr: 0x18C8, symBinAddr: 0x100004DB0, symSize: 0x38 }
  - { offset: 0x8C13, size: 0x8, addend: 0x0, symName: __ZNKSt6vectorI10ItemHandleSaIS0_EE4sizeEv, symObjAddr: 0x187C, symBinAddr: 0x100004D64, symSize: 0x4C }
  - { offset: 0x8C4C, size: 0x8, addend: 0x0, symName: __ZNKSt6vectorI10ItemHandleSaIS0_EE8max_sizeEv, symObjAddr: 0x185C, symBinAddr: 0x100004D44, symSize: 0x20 }
  - { offset: 0x8C76, size: 0x8, addend: 0x0, symName: __ZSt3getILm1EJP4ItemSt14default_deleteIS0_EEERNSt13tuple_elementIXT_ESt5tupleIJDpT0_EEE4typeERS8_, symObjAddr: 0x1840, symBinAddr: 0x100004D28, symSize: 0x1C }
  - { offset: 0x8CB8, size: 0x8, addend: 0x0, symName: __ZSt12__get_helperILm0EP4ItemJSt14default_deleteIS0_EEERT0_RSt11_Tuple_implIXT_EJS4_DpT1_EE, symObjAddr: 0x1824, symBinAddr: 0x100004D0C, symSize: 0x1C }
  - { offset: 0x8D12, size: 0x8, addend: 0x0, symName: __ZNSt19__ptr_traits_ptr_toIPKcS0_Lb0EE10pointer_toERS0_, symObjAddr: 0x17FC, symBinAddr: 0x100004CE4, symSize: 0x28 }
  - { offset: 0x8E1A, size: 0x8, addend: 0x0, symName: __ZNSt12_Vector_baseI10ItemHandleSaIS0_EE19_M_get_Tp_allocatorEv, symObjAddr: 0x17E8, symBinAddr: 0x100004CD0, symSize: 0x14 }
  - { offset: 0x8E3E, size: 0x8, addend: 0x0, symName: __ZNSt6vectorI10ItemHandleSaIS0_EE11_S_relocateEPS0_S3_S3_RS1_, symObjAddr: 0x17B4, symBinAddr: 0x100004C9C, symSize: 0x34 }
  - { offset: 0x8ECE, size: 0x8, addend: 0x0, symName: __ZNSt6vectorI10ItemHandleSaIS0_EE12_Guard_allocD1Ev, symObjAddr: 0x1768, symBinAddr: 0x100004C50, symSize: 0x4C }
  - { offset: 0x8F31, size: 0x8, addend: 0x0, symName: __ZNSt6vectorI10ItemHandleSaIS0_EE12_Guard_allocC1EPS0_mRSt12_Vector_baseIS0_S1_E, symObjAddr: 0x1724, symBinAddr: 0x100004C0C, symSize: 0x44 }
  - { offset: 0x8F6D, size: 0x8, addend: 0x0, symName: __ZNSt12_Vector_baseI10ItemHandleSaIS0_EE11_M_allocateEm, symObjAddr: 0x16D4, symBinAddr: 0x100004BBC, symSize: 0x50 }
  - { offset: 0x9008, size: 0x8, addend: 0x0, symName: __ZNSt6vectorI10ItemHandleSaIS0_EE5beginEv, symObjAddr: 0x16A8, symBinAddr: 0x100004B90, symSize: 0x2C }
  - { offset: 0x9058, size: 0x8, addend: 0x0, symName: __ZNSt6vectorI10ItemHandleSaIS0_EE3endEv, symObjAddr: 0x1678, symBinAddr: 0x100004B60, symSize: 0x30 }
  - { offset: 0x90A8, size: 0x8, addend: 0x0, symName: __ZNKSt6vectorI10ItemHandleSaIS0_EE12_M_check_lenEmPKc, symObjAddr: 0x15A8, symBinAddr: 0x100004A90, symSize: 0xD0 }
  - { offset: 0x9165, size: 0x8, addend: 0x0, symName: __ZNKSt7__cxx1112basic_stringIcSt11char_traitsIcESaIcEE16_M_get_allocatorEv, symObjAddr: 0x1594, symBinAddr: 0x100004A7C, symSize: 0x14 }
  - { offset: 0x918D, size: 0x8, addend: 0x0, symName: __ZNSt15__uniq_ptr_implI4ItemSt14default_deleteIS0_EE10_M_deleterEv, symObjAddr: 0x1578, symBinAddr: 0x100004A60, symSize: 0x1C }
  - { offset: 0x91B7, size: 0x8, addend: 0x0, symName: __ZSt3getILm0EJP4ItemSt14default_deleteIS0_EEERNSt13tuple_elementIXT_ESt5tupleIJDpT0_EEE4typeERS8_, symObjAddr: 0x155C, symBinAddr: 0x100004A44, symSize: 0x1C }
  - { offset: 0x91FD, size: 0x8, addend: 0x0, symName: __ZNKSt7__cxx1112basic_stringIcSt11char_traitsIcESaIcEE8max_sizeEv, symObjAddr: 0x1500, symBinAddr: 0x1000049E8, symSize: 0x5C }
  - { offset: 0x92A8, size: 0x8, addend: 0x0, symName: __ZSt3minImERKT_S2_S2_, symObjAddr: 0x14C8, symBinAddr: 0x1000049B0, symSize: 0x38 }
  - { offset: 0x92EB, size: 0x8, addend: 0x0, symName: __ZNKSt7__cxx1112basic_stringIcSt11char_traitsIcESaIcEE13_M_local_dataEv, symObjAddr: 0x14A8, symBinAddr: 0x100004990, symSize: 0x20 }
  - { offset: 0x9313, size: 0x8, addend: 0x0, symName: __ZNSt7__cxx1112basic_stringIcSt11char_traitsIcESaIcEE10_M_destroyEm, symObjAddr: 0x1444, symBinAddr: 0x10000492C, symSize: 0x64 }
  - { offset: 0x9399, size: 0x8, addend: 0x0, symName: __ZNSt19__ptr_traits_ptr_toIPccLb0EE10pointer_toERc, symObjAddr: 0x141C, symBinAddr: 0x100004904, symSize: 0x28 }
  - { offset: 0x9406, size: 0x8, addend: 0x0, symName: __ZNSt6vectorI10ItemHandleSaIS0_EE15_M_erase_at_endEPS0_, symObjAddr: 0x1388, symBinAddr: 0x100004870, symSize: 0x94 }
  - { offset: 0x9494, size: 0x8, addend: 0x0, symName: __ZNSt6vectorI10ItemHandleSaIS0_EE17_M_realloc_appendIJRKS0_EEEvDpOT_, symObjAddr: 0x1114, symBinAddr: 0x1000045FC, symSize: 0x274 }
  - { offset: 0x9707, size: 0x8, addend: 0x0, symName: __ZNKSt14default_deleteI4ItemEclEPS0_, symObjAddr: 0x10D0, symBinAddr: 0x1000045B8, symSize: 0x44 }
  - { offset: 0x975A, size: 0x8, addend: 0x0, symName: __ZN4ItemD1Ev, symObjAddr: 0x10B0, symBinAddr: 0x100004598, symSize: 0x20 }
  - { offset: 0x97A0, size: 0x8, addend: 0x0, symName: __ZNSt10unique_ptrI4ItemSt14default_deleteIS0_EE11get_deleterEv, symObjAddr: 0x1094, symBinAddr: 0x10000457C, symSize: 0x1C }
  - { offset: 0x97C8, size: 0x8, addend: 0x0, symName: __ZNSt15__uniq_ptr_implI4ItemSt14default_deleteIS0_EE6_M_ptrEv, symObjAddr: 0x1078, symBinAddr: 0x100004560, symSize: 0x1C }
  - { offset: 0x9808, size: 0x8, addend: 0x0, symName: __ZNSt15__new_allocatorIcED2Ev, symObjAddr: 0x1064, symBinAddr: 0x10000454C, symSize: 0x14 }
  - { offset: 0x982C, size: 0x8, addend: 0x0, symName: __ZNKSt7__cxx1112basic_stringIcSt11char_traitsIcESaIcEE4sizeEv, symObjAddr: 0x1014, symBinAddr: 0x1000044FC, symSize: 0x50 }
  - { offset: 0x9879, size: 0x8, addend: 0x0, symName: __ZNSt7__cxx1112basic_stringIcSt11char_traitsIcESaIcEE9_M_lengthEm, symObjAddr: 0xFF0, symBinAddr: 0x1000044D8, symSize: 0x24 }
  - { offset: 0x98B0, size: 0x8, addend: 0x0, symName: __ZNSt7__cxx1112basic_stringIcSt11char_traitsIcESaIcEE11_M_capacityEm, symObjAddr: 0xFCC, symBinAddr: 0x1000044B4, symSize: 0x24 }
  - { offset: 0x98E8, size: 0x8, addend: 0x0, symName: __ZNSt7__cxx1112basic_stringIcSt11char_traitsIcESaIcEE7_M_dataEPc, symObjAddr: 0xFA8, symBinAddr: 0x100004490, symSize: 0x24 }
  - { offset: 0x991F, size: 0x8, addend: 0x0, symName: __ZNKSt7__cxx1112basic_stringIcSt11char_traitsIcESaIcEE6lengthEv, symObjAddr: 0xF8C, symBinAddr: 0x100004474, symSize: 0x1C }
  - { offset: 0x9947, size: 0x8, addend: 0x0, symName: __ZNKSt7__cxx1112basic_stringIcSt11char_traitsIcESaIcEE11_M_is_localEv, symObjAddr: 0xF24, symBinAddr: 0x10000440C, symSize: 0x68 }
  - { offset: 0x9991, size: 0x8, addend: 0x0, symName: __ZNSt7__cxx1112basic_stringIcSt11char_traitsIcESaIcEE16_M_get_allocatorEv, symObjAddr: 0xF10, symBinAddr: 0x1000043F8, symSize: 0x14 }
  - { offset: 0x99B9, size: 0x8, addend: 0x0, symName: __ZNSt7__cxx1112basic_stringIcSt11char_traitsIcESaIcEE10_M_disposeEv, symObjAddr: 0xEC8, symBinAddr: 0x1000043B0, symSize: 0x48 }
  - { offset: 0x99E1, size: 0x8, addend: 0x0, symName: __ZNSt7__cxx1112basic_stringIcSt11char_traitsIcESaIcEE13_M_set_lengthEm, symObjAddr: 0xE80, symBinAddr: 0x100004368, symSize: 0x48 }
  - { offset: 0x9A5D, size: 0x8, addend: 0x0, symName: __ZNSt7__cxx1112basic_stringIcSt11char_traitsIcESaIcEE12_Alloc_hiderC1EPcOS3_, symObjAddr: 0xE28, symBinAddr: 0x100004310, symSize: 0x58 }
  - { offset: 0x9B05, size: 0x8, addend: 0x0, symName: __ZNSt7__cxx1112basic_stringIcSt11char_traitsIcESaIcEE13_M_local_dataEv, symObjAddr: 0xE08, symBinAddr: 0x1000042F0, symSize: 0x20 }
  - { offset: 0x9B2D, size: 0x8, addend: 0x0, symName: __ZNKSt7__cxx1112basic_stringIcSt11char_traitsIcESaIcEE7_M_dataEv, symObjAddr: 0xDF0, symBinAddr: 0x1000042D8, symSize: 0x18 }
  - { offset: 0x9B55, size: 0x8, addend: 0x0, symName: __ZNSt6vectorI10ItemHandleSaIS0_EE5clearEv, symObjAddr: 0xDC4, symBinAddr: 0x1000042AC, symSize: 0x2C }
  - { offset: 0x9B7D, size: 0x8, addend: 0x0, symName: __ZNSt6vectorI10ItemHandleSaIS0_EE9push_backERKS0_, symObjAddr: 0xCA8, symBinAddr: 0x100004190, symSize: 0x11C }
  - { offset: 0x9C81, size: 0x8, addend: 0x0, symName: __ZNSt10unique_ptrI4ItemSt14default_deleteIS0_EED1Ev, symObjAddr: 0xC44, symBinAddr: 0x10000412C, symSize: 0x64 }
  - { offset: 0x9D2D, size: 0x8, addend: 0x0, symName: __ZNSt7__cxx1112basic_stringIcSt11char_traitsIcESaIcEEC1EOS4_, symObjAddr: 0xB38, symBinAddr: 0x100004020, symSize: 0x10C }
  - { offset: 0x9DD7, size: 0x8, addend: 0x0, symName: __ZNSt7__cxx1112basic_stringIcSt11char_traitsIcESaIcEED1Ev, symObjAddr: 0xB10, symBinAddr: 0x100003FF8, symSize: 0x28 }
  - { offset: 0x9E17, size: 0x8, addend: 0x0, symName: __ZNSt7__cxx1112basic_stringIcSt11char_traitsIcESaIcEE12_Alloc_hiderD1Ev, symObjAddr: 0xAE4, symBinAddr: 0x100003FCC, symSize: 0x2C }
  - { offset: 0x9E60, size: 0x8, addend: 0x0, symName: __ZN3BST5eraseERK10ItemHandle, symObjAddr: 0xA7C, symBinAddr: 0x100003F64, symSize: 0x68 }
  - { offset: 0x9EA7, size: 0x8, addend: 0x0, symName: __ZN3BST9eraseNodeEPNS_4NodeERK10ItemHandleRb, symObjAddr: 0x9C0, symBinAddr: 0x100003EA8, symSize: 0xBC }
  - { offset: 0x9EF0, size: 0x8, addend: 0x0, symName: __ZN3BST9eraseRootEPNS_4NodeERb, symObjAddr: 0x88C, symBinAddr: 0x100003D74, symSize: 0x134 }
  - { offset: 0x9F80, size: 0x8, addend: 0x0, symName: __ZN3BST12two_childrenEPNS_4NodeE, symObjAddr: 0x850, symBinAddr: 0x100003D38, symSize: 0x3C }
  - { offset: 0x9FAB, size: 0x8, addend: 0x0, symName: __ZN3BST9one_childEPNS_4NodeE, symObjAddr: 0x7F8, symBinAddr: 0x100003CE0, symSize: 0x58 }
  - { offset: 0x9FD6, size: 0x8, addend: 0x0, symName: __ZN3BST11no_childrenEPNS_4NodeE, symObjAddr: 0x7BC, symBinAddr: 0x100003CA4, symSize: 0x3C }
  - { offset: 0xA001, size: 0x8, addend: 0x0, symName: __ZN3BST9detachMinEPNS_4NodeERS1_, symObjAddr: 0x75C, symBinAddr: 0x100003C44, symSize: 0x60 }
  - { offset: 0xA03F, size: 0x8, addend: 0x0, symName: __ZNK3BST10isValidBSTEv, symObjAddr: 0x734, symBinAddr: 0x100003C1C, symSize: 0x28 }
  - { offset: 0xA067, size: 0x8, addend: 0x0, symName: __ZN3BST7isValidEPNS_4NodeEPK10ItemHandleS4_, symObjAddr: 0x624, symBinAddr: 0x100003B0C, symSize: 0x110 }
  - { offset: 0xA0E4, size: 0x8, addend: 0x0, symName: __ZNK3BST7inorderERSt6vectorI10ItemHandleSaIS1_EE, symObjAddr: 0x5F0, symBinAddr: 0x100003AD8, symSize: 0x34 }
  - { offset: 0xA11B, size: 0x8, addend: 0x0, symName: __ZN3BST11inorderWalkEPNS_4NodeERSt6vectorI10ItemHandleSaIS3_EE, symObjAddr: 0x594, symBinAddr: 0x100003A7C, symSize: 0x5C }
  - { offset: 0xA159, size: 0x8, addend: 0x0, symName: __ZNK3BST8containsERK10ItemHandle, symObjAddr: 0x56C, symBinAddr: 0x100003A54, symSize: 0x28 }
  - { offset: 0xA190, size: 0x8, addend: 0x0, symName: __ZN3BST12containsNodeEPNS_4NodeERK10ItemHandle, symObjAddr: 0x4E0, symBinAddr: 0x1000039C8, symSize: 0x8C }
  - { offset: 0xA1CE, size: 0x8, addend: 0x0, symName: __ZN3BST6insertERK10ItemHandle, symObjAddr: 0x45C, symBinAddr: 0x100003944, symSize: 0x84 }
  - { offset: 0xA215, size: 0x8, addend: 0x0, symName: __ZN3BST10insertNodeEPNS_4NodeERK10ItemHandleRb, symObjAddr: 0x228, symBinAddr: 0x100003710, symSize: 0x234 }
  - { offset: 0xA27E, size: 0x8, addend: 0x0, symName: __ZN3BST5clearEPNS_4NodeE, symObjAddr: 0x1C0, symBinAddr: 0x1000036A8, symSize: 0x68 }
  - { offset: 0xA2C5, size: 0x8, addend: 0x0, symName: __ZN3BST4NodeD1Ev, symObjAddr: 0x1A0, symBinAddr: 0x100003688, symSize: 0x20 }
  - { offset: 0xA305, size: 0x8, addend: 0x0, symName: __ZN3BSTD1Ev, symObjAddr: 0x17C, symBinAddr: 0x100003664, symSize: 0x24 }
  - { offset: 0xA32D, size: 0x8, addend: 0x0, symName: __ZN3BSTD2Ev, symObjAddr: 0x158, symBinAddr: 0x100003640, symSize: 0x24 }
  - { offset: 0xA36D, size: 0x8, addend: 0x0, symName: __ZN3BSTC1Ev, symObjAddr: 0x134, symBinAddr: 0x10000361C, symSize: 0x24 }
  - { offset: 0xA395, size: 0x8, addend: 0x0, symName: __ZN3BSTC2Ev, symObjAddr: 0x110, symBinAddr: 0x1000035F8, symSize: 0x24 }
  - { offset: 0xA3DD, size: 0x8, addend: 0x0, symName: __ZN3BST4NodeC1ERK10ItemHandle, symObjAddr: 0xD8, symBinAddr: 0x1000035C0, symSize: 0x38 }
  - { offset: 0xA421, size: 0x8, addend: 0x0, symName: __ZN10ItemHandleD1Ev, symObjAddr: 0xAC, symBinAddr: 0x100003594, symSize: 0x2C }
  - { offset: 0xA449, size: 0x8, addend: 0x0, symName: __ZdlPvS_, symObjAddr: 0x94, symBinAddr: 0x10000357C, symSize: 0x18 }
  - { offset: 0xA47F, size: 0x8, addend: 0x0, symName: __ZnwmPv, symObjAddr: 0x7C, symBinAddr: 0x100003564, symSize: 0x18 }
  - { offset: 0xA4AF, size: 0x8, addend: 0x0, symName: __ZNSt11char_traitsIcE4copyEPcPKcm, symObjAddr: 0x28, symBinAddr: 0x100003510, symSize: 0x54 }
  - { offset: 0xA4F7, size: 0x8, addend: 0x0, symName: __ZNSt11char_traitsIcE6assignERcRKc, symObjAddr: 0x0, symBinAddr: 0x1000034E8, symSize: 0x28 }
  - { offset: 0x13C33, size: 0x8, addend: 0x0, symName: __ZStL8__ioinit, symObjAddr: 0x540C0, symBinAddr: 0x100020001, symSize: 0x0 }
  - { offset: 0x14882, size: 0x8, addend: 0x0, symName: __ZNSt15__new_allocatorISt10_List_nodeISt4pairINSt7__cxx1112basic_stringIcSt11char_traitsIcESaIcEEE10ItemHandleEEE10deallocateEPSA_m, symObjAddr: 0x1110, symBinAddr: 0x100005F48, symSize: 0x44 }
  - { offset: 0x148CD, size: 0x8, addend: 0x0, symName: __ZN9__gnu_cxx16__aligned_membufISt4pairINSt7__cxx1112basic_stringIcSt11char_traitsIcESaIcEEE10ItemHandleEE7_M_addrEv, symObjAddr: 0x10FC, symBinAddr: 0x100005F34, symSize: 0x14 }
  - { offset: 0x14969, size: 0x8, addend: 0x0, symName: __ZNSt4pairINSt7__cxx1112basic_stringIcSt11char_traitsIcESaIcEEE10ItemHandleED1Ev, symObjAddr: 0x10D0, symBinAddr: 0x100005F08, symSize: 0x2C }
  - { offset: 0x1498D, size: 0x8, addend: 0x0, symName: __ZN9__gnu_cxx16__aligned_membufISt4pairINSt7__cxx1112basic_stringIcSt11char_traitsIcESaIcEEE10ItemHandleEE6_M_ptrEv, symObjAddr: 0x10B4, symBinAddr: 0x100005EEC, symSize: 0x1C }
  - { offset: 0x149B5, size: 0x8, addend: 0x0, symName: __ZNSt7__cxx1110_List_baseISt4pairINS_12basic_stringIcSt11char_traitsIcESaIcEEE10ItemHandleESaIS8_EE11_M_put_nodeEPSt10_List_nodeIS8_E, symObjAddr: 0x106C, symBinAddr: 0x100005EA4, symSize: 0x48 }
  - { offset: 0x14A49, size: 0x8, addend: 0x0, symName: __ZNSt10_List_nodeISt4pairINSt7__cxx1112basic_stringIcSt11char_traitsIcESaIcEEE10ItemHandleEE9_M_valptrEv, symObjAddr: 0x104C, symBinAddr: 0x100005E84, symSize: 0x20 }
  - { offset: 0x14A71, size: 0x8, addend: 0x0, symName: __ZNSt10_List_nodeISt4pairINSt7__cxx1112basic_stringIcSt11char_traitsIcESaIcEEE10ItemHandleEE11_M_node_ptrEv, symObjAddr: 0x1038, symBinAddr: 0x100005E70, symSize: 0x14 }
  - { offset: 0x14A99, size: 0x8, addend: 0x0, symName: __ZNSt7__cxx1110_List_baseISt4pairINS_12basic_stringIcSt11char_traitsIcESaIcEEE10ItemHandleESaIS8_EE15_M_destroy_nodeEPSt10_List_nodeIS8_E, symObjAddr: 0xFD4, symBinAddr: 0x100005E0C, symSize: 0x64 }
  - { offset: 0x14B3D, size: 0x8, addend: 0x0, symName: __ZNSt15__new_allocatorISt10_List_nodeISt4pairINSt7__cxx1112basic_stringIcSt11char_traitsIcESaIcEEE10ItemHandleEEED2Ev, symObjAddr: 0xFC0, symBinAddr: 0x100005DF8, symSize: 0x14 }
  - { offset: 0x14B61, size: 0x8, addend: 0x0, symName: __ZNSt7__cxx1110_List_baseISt4pairINS_12basic_stringIcSt11char_traitsIcESaIcEEE10ItemHandleESaIS8_EE8_M_clearEv, symObjAddr: 0xF30, symBinAddr: 0x100005D7C, symSize: 0x7C }
  - { offset: 0x14BFA, size: 0x8, addend: 0x0, symName: __ZNSt7__cxx1110_List_baseISt4pairINS_12basic_stringIcSt11char_traitsIcESaIcEEE10ItemHandleESaIS8_EED2Ev, symObjAddr: 0xED8, symBinAddr: 0x100005D54, symSize: 0x28 }
  - { offset: 0x14C3B, size: 0x8, addend: 0x0, symName: __ZNSt7__cxx1110_List_baseISt4pairINS_12basic_stringIcSt11char_traitsIcESaIcEEE10ItemHandleESaIS8_EE10_List_implD1Ev, symObjAddr: 0xEAC, symBinAddr: 0x100005D28, symSize: 0x2C }
  - { offset: 0x14C81, size: 0x8, addend: 0x0, symName: __ZNSt15__new_allocatorINSt7__cxx114listISt4pairINS0_12basic_stringIcSt11char_traitsIcESaIcEEE10ItemHandleESaIS9_EEEE10deallocateEPSB_m, symObjAddr: 0xE70, symBinAddr: 0x100005CEC, symSize: 0x3C }
  - { offset: 0x14CC3, size: 0x8, addend: 0x0, symName: __ZSt8_DestroyINSt7__cxx114listISt4pairINS0_12basic_stringIcSt11char_traitsIcESaIcEEE10ItemHandleESaIS9_EEEEvPT_, symObjAddr: 0xD94, symBinAddr: 0x100005CCC, symSize: 0x20 }
  - { offset: 0x14D0F, size: 0x8, addend: 0x0, symName: __ZNSt7__cxx114listISt4pairINS_12basic_stringIcSt11char_traitsIcESaIcEEE10ItemHandleESaIS8_EED1Ev, symObjAddr: 0xD74, symBinAddr: 0x100005CAC, symSize: 0x20 }
  - { offset: 0x14D95, size: 0x8, addend: 0x0, symName: __ZNSt15__new_allocatorINSt7__cxx114listISt4pairINS0_12basic_stringIcSt11char_traitsIcESaIcEEE10ItemHandleESaIS9_EEEED2Ev, symObjAddr: 0xD60, symBinAddr: 0x100005C98, symSize: 0x14 }
  - { offset: 0x14DC9, size: 0x8, addend: 0x0, symName: __ZSt8_DestroyIPNSt7__cxx114listISt4pairINS0_12basic_stringIcSt11char_traitsIcESaIcEEE10ItemHandleESaIS9_EEEEvT_SD_, symObjAddr: 0xC60, symBinAddr: 0x100005C48, symSize: 0x50 }
  - { offset: 0x14E2D, size: 0x8, addend: 0x0, symName: __ZNSt12_Vector_baseINSt7__cxx114listISt4pairINS0_12basic_stringIcSt11char_traitsIcESaIcEEE10ItemHandleESaIS9_EEESaISB_EE13_M_deallocateEPSB_m, symObjAddr: 0xC08, symBinAddr: 0x100005BF0, symSize: 0x58 }
  - { offset: 0x14EEF, size: 0x8, addend: 0x0, symName: __ZNSt6chrono8durationIxSt5ratioILl1ELl1000EEEC1IxvEERKT_, symObjAddr: 0xBE0, symBinAddr: 0x100005BC8, symSize: 0x28 }
  - { offset: 0x14F74, size: 0x8, addend: 0x0, symName: __ZNSt15__new_allocatorI10ItemHandleED2Ev, symObjAddr: 0xAA4, symBinAddr: 0x100005BB4, symSize: 0x14 }
  - { offset: 0x14FB0, size: 0x8, addend: 0x0, symName: __ZNSt12_Vector_baseI10ItemHandleSaIS0_EE17_Vector_impl_dataC2Ev, symObjAddr: 0xA78, symBinAddr: 0x100005B88, symSize: 0x2C }
  - { offset: 0x15020, size: 0x8, addend: 0x0, symName: __ZNSt12_Vector_baseINSt7__cxx114listISt4pairINS0_12basic_stringIcSt11char_traitsIcESaIcEEE10ItemHandleESaIS9_EEESaISB_EE19_M_get_Tp_allocatorEv, symObjAddr: 0xA64, symBinAddr: 0x100005B74, symSize: 0x14 }
  - { offset: 0x15060, size: 0x8, addend: 0x0, symName: __ZNSt12_Vector_baseINSt7__cxx114listISt4pairINS0_12basic_stringIcSt11char_traitsIcESaIcEEE10ItemHandleESaIS9_EEESaISB_EED2Ev, symObjAddr: 0xA08, symBinAddr: 0x100005B18, symSize: 0x5C }
  - { offset: 0x150A0, size: 0x8, addend: 0x0, symName: __ZNSt12_Vector_baseINSt7__cxx114listISt4pairINS0_12basic_stringIcSt11char_traitsIcESaIcEEE10ItemHandleESaIS9_EEESaISB_EE12_Vector_implD1Ev, symObjAddr: 0x9DC, symBinAddr: 0x100005AEC, symSize: 0x2C }
  - { offset: 0x150E1, size: 0x8, addend: 0x0, symName: __ZNSt6chrono20__duration_cast_implINS_8durationIxSt5ratioILl1ELl1000EEEES2_ILl1ELl1000000EExLb1ELb0EE6__castIxS2_ILl1ELl1000000000EEEES4_RKNS1_IT_T0_EE, symObjAddr: 0x98C, symBinAddr: 0x100005A9C, symSize: 0x50 }
  - { offset: 0x15126, size: 0x8, addend: 0x0, symName: __ZNSt6chronomiIxSt5ratioILl1ELl1000000000EExS2_EENSt11common_typeIJNS_8durationIT_T0_EENS4_IT1_T2_EEEE4typeERKS7_RKSA_, symObjAddr: 0x928, symBinAddr: 0x100005A38, symSize: 0x64 }
  - { offset: 0x15193, size: 0x8, addend: 0x0, symName: __ZNKSt6chrono10time_pointINS_3_V212steady_clockENS_8durationIxSt5ratioILl1ELl1000000000EEEEE16time_since_epochEv, symObjAddr: 0x910, symBinAddr: 0x100005A20, symSize: 0x18 }
  - { offset: 0x151ED, size: 0x8, addend: 0x0, symName: __ZNSt6vectorI10ItemHandleSaIS0_EED1Ev, symObjAddr: 0x6CC, symBinAddr: 0x1000059C4, symSize: 0x5C }
  - { offset: 0x1525B, size: 0x8, addend: 0x0, symName: __ZNSt12_Vector_baseI10ItemHandleSaIS0_EED2Ev, symObjAddr: 0x670, symBinAddr: 0x100005968, symSize: 0x5C }
  - { offset: 0x152AB, size: 0x8, addend: 0x0, symName: __ZNSt12_Vector_baseI10ItemHandleSaIS0_EE12_Vector_implC1Ev, symObjAddr: 0x638, symBinAddr: 0x100005930, symSize: 0x38 }
  - { offset: 0x15329, size: 0x8, addend: 0x0, symName: __ZNSt6vectorINSt7__cxx114listISt4pairINS0_12basic_stringIcSt11char_traitsIcESaIcEEE10ItemHandleESaIS9_EEESaISB_EED1Ev, symObjAddr: 0x5DC, symBinAddr: 0x1000058D4, symSize: 0x5C }
  - { offset: 0x1537F, size: 0x8, addend: 0x0, symName: __ZNKSt6chrono8durationIxSt5ratioILl1ELl1000EEE5countEv, symObjAddr: 0x5C4, symBinAddr: 0x1000058BC, symSize: 0x18 }
  - { offset: 0x153A3, size: 0x8, addend: 0x0, symName: __ZNSt6chrono13duration_castINS_8durationIxSt5ratioILl1ELl1000EEEExS2_ILl1ELl1000000000EEEENSt9enable_ifIXsrNS_13__is_durationIT_EE5valueES8_E4typeERKNS1_IT0_T1_EE, symObjAddr: 0x5A8, symBinAddr: 0x1000058A0, symSize: 0x1C }
  - { offset: 0x153FE, size: 0x8, addend: 0x0, symName: __ZNSt6chronomiINS_3_V212steady_clockENS_8durationIxSt5ratioILl1ELl1000000000EEEES6_EENSt11common_typeIJT0_T1_EE4typeERKNS_10time_pointIT_S8_EERKNSC_ISD_S9_EE, symObjAddr: 0x56C, symBinAddr: 0x100005864, symSize: 0x3C }
  - { offset: 0x15459, size: 0x8, addend: 0x0, symName: __ZNK6Engine12sortSnapshotERSt6vectorI10ItemHandleSaIS1_EE8SortAlgob, symObjAddr: 0x468, symBinAddr: 0x100005818, symSize: 0x4C }
  - { offset: 0x154B2, size: 0x8, addend: 0x0, symName: __ZNK6Engine11listInOrderERSt6vectorI10ItemHandleSaIS1_EE, symObjAddr: 0x43C, symBinAddr: 0x1000057EC, symSize: 0x2C }
  - { offset: 0x154ED, size: 0x8, addend: 0x0, symName: __ZNK6Engine10findByNameERKNSt7__cxx1112basic_stringIcSt11char_traitsIcESaIcEEE, symObjAddr: 0x418, symBinAddr: 0x1000057C8, symSize: 0x24 }
  - { offset: 0x15528, size: 0x8, addend: 0x0, symName: __ZN6Engine11eraseByNameERKNSt7__cxx1112basic_stringIcSt11char_traitsIcESaIcEEE, symObjAddr: 0x400, symBinAddr: 0x1000057B0, symSize: 0x18 }
  - { offset: 0x15563, size: 0x8, addend: 0x0, symName: __ZN6Engine3addERK10ItemHandle, symObjAddr: 0x3E8, symBinAddr: 0x100005798, symSize: 0x18 }
  - { offset: 0x1559E, size: 0x8, addend: 0x0, symName: __ZN6Engine7loadCSVERKNSt7__cxx1112basic_stringIcSt11char_traitsIcESaIcEEE, symObjAddr: 0x1FC, symBinAddr: 0x1000055AC, symSize: 0x1EC }
  - { offset: 0x157A6, size: 0x8, addend: 0x0, symName: __ZNSt6vectorI10ItemHandleSaIS0_EEC1Ev, symObjAddr: 0x1DC, symBinAddr: 0x10000558C, symSize: 0x20 }
  - { offset: 0x157E2, size: 0x8, addend: 0x0, symName: __ZNSt12_Vector_baseI10ItemHandleSaIS0_EEC2Ev, symObjAddr: 0x1BC, symBinAddr: 0x10000556C, symSize: 0x20 }
  - { offset: 0x15822, size: 0x8, addend: 0x0, symName: __ZNSt12_Vector_baseI10ItemHandleSaIS0_EE12_Vector_implD1Ev, symObjAddr: 0x190, symBinAddr: 0x100005540, symSize: 0x2C }
  - { offset: 0x1588F, size: 0x8, addend: 0x0, symName: __ZN6EngineC1Em, symObjAddr: 0x140, symBinAddr: 0x1000054F0, symSize: 0x50 }
  - { offset: 0x158BF, size: 0x8, addend: 0x0, symName: __ZN6EngineC2Em, symObjAddr: 0xF0, symBinAddr: 0x1000054A0, symSize: 0x50 }
  - { offset: 0x15907, size: 0x8, addend: 0x0, symName: __ZN9HashTableD1Ev, symObjAddr: 0xD0, symBinAddr: 0x100005480, symSize: 0x20 }
  - { offset: 0x15927, size: 0x8, addend: 0x0, symName: __ZN8provided10ms_betweenENSt6chrono10time_pointINS0_3_V212steady_clockENS0_8durationIxSt5ratioILl1ELl1000000000EEEEEES8_, symObjAddr: 0x94, symBinAddr: 0x100005444, symSize: 0x3C }
  - { offset: 0x1595E, size: 0x8, addend: 0x0, symName: __ZN8provided3nowEv, symObjAddr: 0x80, symBinAddr: 0x100005430, symSize: 0x14 }
  - { offset: 0x15979, size: 0x8, addend: 0x0, symName: __ZNKSt6chrono8durationIxSt5ratioILl1ELl1000000000EEE5countEv, symObjAddr: 0x68, symBinAddr: 0x100005418, symSize: 0x18 }
  - { offset: 0x159CF, size: 0x8, addend: 0x0, symName: __ZNSt6chrono8durationIxSt5ratioILl1ELl1000000000EEEC1IxvEERKT_, symObjAddr: 0x40, symBinAddr: 0x1000053F0, symSize: 0x28 }
  - { offset: 0x15A04, size: 0x8, addend: 0x0, symName: __ZNSt8__detail17_List_node_header7_M_baseEv, symObjAddr: 0x2C, symBinAddr: 0x1000053DC, symSize: 0x14 }
  - { offset: 0x1C2FF, size: 0x8, addend: 0x0, symName: __ZNSt7__cxx1110_List_baseISt4pairINS_12basic_stringIcSt11char_traitsIcESaIcEEE10ItemHandleESaIS8_EE10_List_implC1Ev, symObjAddr: 0xCDC, symBinAddr: 0x100006780, symSize: 0x38 }
  - { offset: 0x1C366, size: 0x8, addend: 0x0, symName: __ZNSt19_UninitDestroyGuardIPNSt7__cxx114listISt4pairINS0_12basic_stringIcSt11char_traitsIcESaIcEEE10ItemHandleESaIS9_EEEvE7releaseEv, symObjAddr: 0xC44, symBinAddr: 0x100006764, symSize: 0x1C }
  - { offset: 0x1C38A, size: 0x8, addend: 0x0, symName: __ZSt10_ConstructINSt7__cxx114listISt4pairINS0_12basic_stringIcSt11char_traitsIcESaIcEEE10ItemHandleESaIS9_EEEJEEvPT_DpOT0_, symObjAddr: 0xBE4, symBinAddr: 0x100006704, symSize: 0x60 }
  - { offset: 0x1C3E4, size: 0x8, addend: 0x0, symName: __ZNSt7__cxx114listISt4pairINS_12basic_stringIcSt11char_traitsIcESaIcEEE10ItemHandleESaIS8_EEC1Ev, symObjAddr: 0xBC4, symBinAddr: 0x1000066E4, symSize: 0x20 }
  - { offset: 0x1C420, size: 0x8, addend: 0x0, symName: __ZNSt7__cxx1110_List_baseISt4pairINS_12basic_stringIcSt11char_traitsIcESaIcEEE10ItemHandleESaIS8_EEC2Ev, symObjAddr: 0xBA4, symBinAddr: 0x1000066C4, symSize: 0x20 }
  - { offset: 0x1C45C, size: 0x8, addend: 0x0, symName: __ZNSt19_UninitDestroyGuardIPNSt7__cxx114listISt4pairINS0_12basic_stringIcSt11char_traitsIcESaIcEEE10ItemHandleESaIS9_EEEvED1Ev, symObjAddr: 0xB4C, symBinAddr: 0x10000666C, symSize: 0x58 }
  - { offset: 0x1C4A4, size: 0x8, addend: 0x0, symName: __ZNSt19_UninitDestroyGuardIPNSt7__cxx114listISt4pairINS0_12basic_stringIcSt11char_traitsIcESaIcEEE10ItemHandleESaIS9_EEEvEC1ERSC_, symObjAddr: 0xB18, symBinAddr: 0x100006638, symSize: 0x34 }
  - { offset: 0x1C4D0, size: 0x8, addend: 0x0, symName: __ZNSt15__new_allocatorINSt7__cxx114listISt4pairINS0_12basic_stringIcSt11char_traitsIcESaIcEEE10ItemHandleESaIS9_EEEE8allocateEmPKv, symObjAddr: 0xA88, symBinAddr: 0x1000065A8, symSize: 0x90 }
  - { offset: 0x1C551, size: 0x8, addend: 0x0, symName: __ZNSt27__uninitialized_default_n_1ILb0EE18__uninit_default_nIPNSt7__cxx114listISt4pairINS2_12basic_stringIcSt11char_traitsIcESaIcEEE10ItemHandleESaISB_EEEmEET_SF_T0_, symObjAddr: 0x9B8, symBinAddr: 0x10000652C, symSize: 0x7C }
  - { offset: 0x1C61F, size: 0x8, addend: 0x0, symName: __ZSt25__uninitialized_default_nIPNSt7__cxx114listISt4pairINS0_12basic_stringIcSt11char_traitsIcESaIcEEE10ItemHandleESaIS9_EEEmET_SD_T0_, symObjAddr: 0x8E8, symBinAddr: 0x100006500, symSize: 0x2C }
  - { offset: 0x1C67E, size: 0x8, addend: 0x0, symName: __ZNSt12_Vector_baseINSt7__cxx114listISt4pairINS0_12basic_stringIcSt11char_traitsIcESaIcEEE10ItemHandleESaIS9_EEESaISB_EE11_M_allocateEm, symObjAddr: 0x898, symBinAddr: 0x1000064B0, symSize: 0x50 }
  - { offset: 0x1C6F8, size: 0x8, addend: 0x0, symName: __ZNSt12_Vector_baseINSt7__cxx114listISt4pairINS0_12basic_stringIcSt11char_traitsIcESaIcEEE10ItemHandleESaIS9_EEESaISB_EE17_Vector_impl_dataC2Ev, symObjAddr: 0x86C, symBinAddr: 0x100006484, symSize: 0x2C }
  - { offset: 0x1C745, size: 0x8, addend: 0x0, symName: __ZSt27__uninitialized_default_n_aIPNSt7__cxx114listISt4pairINS0_12basic_stringIcSt11char_traitsIcESaIcEEE10ItemHandleESaIS9_EEEmSB_ET_SD_T0_RSaIT1_E, symObjAddr: 0x7CC, symBinAddr: 0x10000645C, symSize: 0x28 }
  - { offset: 0x1C7A5, size: 0x8, addend: 0x0, symName: __ZNSt12_Vector_baseINSt7__cxx114listISt4pairINS0_12basic_stringIcSt11char_traitsIcESaIcEEE10ItemHandleESaIS9_EEESaISB_EE17_M_create_storageEm, symObjAddr: 0x708, symBinAddr: 0x1000063F0, symSize: 0x6C }
  - { offset: 0x1C801, size: 0x8, addend: 0x0, symName: __ZNSt12_Vector_baseINSt7__cxx114listISt4pairINS0_12basic_stringIcSt11char_traitsIcESaIcEEE10ItemHandleESaIS9_EEESaISB_EE12_Vector_implC1ERKSC_, symObjAddr: 0x6BC, symBinAddr: 0x1000063A4, symSize: 0x4C }
  - { offset: 0x1C89B, size: 0x8, addend: 0x0, symName: __ZNSt6vectorINSt7__cxx114listISt4pairINS0_12basic_stringIcSt11char_traitsIcESaIcEEE10ItemHandleESaIS9_EEESaISB_EE11_S_max_sizeERKSC_, symObjAddr: 0x660, symBinAddr: 0x100006348, symSize: 0x5C }
  - { offset: 0x1C94E, size: 0x8, addend: 0x0, symName: __ZNSt6vectorINSt7__cxx114listISt4pairINS0_12basic_stringIcSt11char_traitsIcESaIcEEE10ItemHandleESaIS9_EEESaISB_EE21_M_default_initializeEm, symObjAddr: 0x578, symBinAddr: 0x1000062F8, symSize: 0x50 }
  - { offset: 0x1C9B8, size: 0x8, addend: 0x0, symName: __ZNSt12_Vector_baseINSt7__cxx114listISt4pairINS0_12basic_stringIcSt11char_traitsIcESaIcEEE10ItemHandleESaIS9_EEESaISB_EEC2EmRKSC_, symObjAddr: 0x4C8, symBinAddr: 0x1000062A4, symSize: 0x54 }
  - { offset: 0x1C9E8, size: 0x8, addend: 0x0, symName: __ZNSt6vectorINSt7__cxx114listISt4pairINS0_12basic_stringIcSt11char_traitsIcESaIcEEE10ItemHandleESaIS9_EEESaISB_EE17_S_check_init_lenEmRKSC_, symObjAddr: 0x418, symBinAddr: 0x100006220, symSize: 0x84 }
  - { offset: 0x1CADB, size: 0x8, addend: 0x0, symName: __ZNSt6vectorINSt7__cxx114listISt4pairINS0_12basic_stringIcSt11char_traitsIcESaIcEEE10ItemHandleESaIS9_EEESaISB_EEC1EmRKSC_, symObjAddr: 0x2AC, symBinAddr: 0x1000061B8, symSize: 0x68 }
  - { offset: 0x1CB3B, size: 0x8, addend: 0x0, symName: __ZN9HashTable5eraseERKNSt7__cxx1112basic_stringIcSt11char_traitsIcESaIcEEE, symObjAddr: 0x240, symBinAddr: 0x1000061A0, symSize: 0x18 }
  - { offset: 0x1CB76, size: 0x8, addend: 0x0, symName: __ZNK9HashTable4findERKNSt7__cxx1112basic_stringIcSt11char_traitsIcESaIcEEE, symObjAddr: 0x228, symBinAddr: 0x100006188, symSize: 0x18 }
  - { offset: 0x1CBB1, size: 0x8, addend: 0x0, symName: __ZN9HashTable4findERKNSt7__cxx1112basic_stringIcSt11char_traitsIcESaIcEEE, symObjAddr: 0x210, symBinAddr: 0x100006170, symSize: 0x18 }
  - { offset: 0x1CBEC, size: 0x8, addend: 0x0, symName: __ZN9HashTable6insertERKNSt7__cxx1112basic_stringIcSt11char_traitsIcESaIcEEERK10ItemHandle, symObjAddr: 0x1F4, symBinAddr: 0x100006154, symSize: 0x1C }
  - { offset: 0x1CC5A, size: 0x8, addend: 0x0, symName: __ZN9HashTableC1Em, symObjAddr: 0x164, symBinAddr: 0x1000060C4, symSize: 0x90 }
  - { offset: 0x1CD08, size: 0x8, addend: 0x0, symName: __ZN9HashTableC2Em, symObjAddr: 0xD4, symBinAddr: 0x100006034, symSize: 0x90 }
  - { offset: 0x1CDB2, size: 0x8, addend: 0x0, symName: __ZNSt8__detail17_List_node_header7_M_initEv, symObjAddr: 0x50, symBinAddr: 0x100005FFC, symSize: 0x38 }
  - { offset: 0x1CDF2, size: 0x8, addend: 0x0, symName: __ZNSt8__detail17_List_node_headerC1Ev, symObjAddr: 0x30, symBinAddr: 0x100005FDC, symSize: 0x20 }
  - { offset: 0x21C1A, size: 0x8, addend: 0x0, symName: __ZNSt10_Head_baseILm0EP4ItemLb0EE7_M_headERKS2_, symObjAddr: 0x1DE8, symBinAddr: 0x100007DAC, symSize: 0x14 }
  - { offset: 0x21C55, size: 0x8, addend: 0x0, symName: __ZNSt11_Tuple_implILm0EJP4ItemSt14default_deleteIS0_EEE7_M_headERKS4_, symObjAddr: 0x1DA4, symBinAddr: 0x100007D90, symSize: 0x1C }
  - { offset: 0x21C81, size: 0x8, addend: 0x0, symName: __ZNSt15__new_allocatorIcE8allocateEmPKv, symObjAddr: 0x1D40, symBinAddr: 0x100007D2C, symSize: 0x64 }
  - { offset: 0x21D0A, size: 0x8, addend: 0x0, symName: __ZNSt10_Head_baseILm1ESt14default_deleteI4ItemELb1EEC2Ev, symObjAddr: 0x1CF4, symBinAddr: 0x100007D18, symSize: 0x14 }
  - { offset: 0x21D2A, size: 0x8, addend: 0x0, symName: __ZSt12__get_helperILm0EP4ItemJSt14default_deleteIS0_EEERKT0_RKSt11_Tuple_implIXT_EJS4_DpT1_EE, symObjAddr: 0x1CB0, symBinAddr: 0x100007CFC, symSize: 0x1C }
  - { offset: 0x21DC9, size: 0x8, addend: 0x0, symName: __ZNSt10_Head_baseILm0EP4ItemLb0EEC2Ev, symObjAddr: 0x1C5C, symBinAddr: 0x100007CE0, symSize: 0x1C }
  - { offset: 0x21E05, size: 0x8, addend: 0x0, symName: __ZNSt11_Tuple_implILm1EJSt14default_deleteI4ItemEEEC2Ev, symObjAddr: 0x1C3C, symBinAddr: 0x100007CC0, symSize: 0x20 }
  - { offset: 0x21E3E, size: 0x8, addend: 0x0, symName: __ZNSt7__cxx1112basic_stringIcSt11char_traitsIcESaIcEE10_S_compareEmm, symObjAddr: 0x1BBC, symBinAddr: 0x100007C68, symSize: 0x58 }
  - { offset: 0x21E8D, size: 0x8, addend: 0x0, symName: __ZSt3getILm0EJP4ItemSt14default_deleteIS0_EEERKNSt13tuple_elementIXT_ESt5tupleIJDpT0_EEE4typeERKS8_, symObjAddr: 0x1BA0, symBinAddr: 0x100007C4C, symSize: 0x1C }
  - { offset: 0x21ED8, size: 0x8, addend: 0x0, symName: __ZNSt7__cxx1112basic_stringIcSt11char_traitsIcESaIcEE9_M_assignERKS4_, symObjAddr: 0x1AAC, symBinAddr: 0x100007B58, symSize: 0xF4 }
  - { offset: 0x21FC2, size: 0x8, addend: 0x0, symName: __ZNSt7__cxx1112basic_stringIcSt11char_traitsIcESaIcEE11_S_allocateERS3_m, symObjAddr: 0x1A68, symBinAddr: 0x100007B14, symSize: 0x44 }
  - { offset: 0x2207E, size: 0x8, addend: 0x0, symName: __ZNSt15__uniq_ptr_implI4ItemSt14default_deleteIS0_EEC2EPS0_, symObjAddr: 0x1A10, symBinAddr: 0x100007AD8, symSize: 0x3C }
  - { offset: 0x220C2, size: 0x8, addend: 0x0, symName: __ZNSt11_Tuple_implILm0EJP4ItemSt14default_deleteIS0_EEEC2Ev, symObjAddr: 0x19CC, symBinAddr: 0x100007AB0, symSize: 0x28 }
  - { offset: 0x220E2, size: 0x8, addend: 0x0, symName: __ZNSt7__cxx1112basic_stringIcSt11char_traitsIcESaIcEE7_S_copyEPcPKcm, symObjAddr: 0x1904, symBinAddr: 0x100007A64, symSize: 0x4C }
  - { offset: 0x22132, size: 0x8, addend: 0x0, symName: __ZNSt7__cxx1112basic_stringIcSt11char_traitsIcESaIcEE9_M_createERmm, symObjAddr: 0x1810, symBinAddr: 0x100007970, symSize: 0xF4 }
  - { offset: 0x22178, size: 0x8, addend: 0x0, symName: __ZNKSt7__cxx1112basic_stringIcSt11char_traitsIcESaIcEE8capacityEv, symObjAddr: 0x178C, symBinAddr: 0x1000078EC, symSize: 0x84 }
  - { offset: 0x221D1, size: 0x8, addend: 0x0, symName: __ZNKSt7__cxx1112basic_stringIcSt11char_traitsIcESaIcEE7compareERKS4_, symObjAddr: 0x166C, symBinAddr: 0x100007858, symSize: 0x94 }
  - { offset: 0x2224D, size: 0x8, addend: 0x0, symName: __ZNKSt15__uniq_ptr_implI4ItemSt14default_deleteIS0_EE6_M_ptrEv, symObjAddr: 0x1614, symBinAddr: 0x100007838, symSize: 0x20 }
  - { offset: 0x22275, size: 0x8, addend: 0x0, symName: __ZNSt7__cxx1112basic_stringIcSt11char_traitsIcESaIcEE6assignERKS4_, symObjAddr: 0x1434, symBinAddr: 0x100007658, symSize: 0x1E0 }
  - { offset: 0x22435, size: 0x8, addend: 0x0, symName: __ZNSt15__uniq_ptr_implI4ItemSt14default_deleteIS0_EE7releaseEv, symObjAddr: 0x13E4, symBinAddr: 0x100007624, symSize: 0x34 }
  - { offset: 0x2246D, size: 0x8, addend: 0x0, symName: __ZNSt15__uniq_ptr_implI4ItemSt14default_deleteIS0_EE5resetEPS0_, symObjAddr: 0x1384, symBinAddr: 0x1000075C4, symSize: 0x60 }
  - { offset: 0x224B4, size: 0x8, addend: 0x0, symName: __ZNSt7__cxx1112basic_stringIcSt11char_traitsIcESaIcEE12_M_constructILb1EEEvPKcm, symObjAddr: 0x12E4, symBinAddr: 0x100007524, symSize: 0xA0 }
  - { offset: 0x2258B, size: 0x8, addend: 0x0, symName: __ZNSt10unique_ptrI4ItemSt14default_deleteIS0_EEC1IS2_vEEPS0_, symObjAddr: 0x12A8, symBinAddr: 0x1000074FC, symSize: 0x28 }
  - { offset: 0x225E1, size: 0x8, addend: 0x0, symName: __ZNSt15__uniq_ptr_dataI4ItemSt14default_deleteIS0_ELb1ELb1EECI1St15__uniq_ptr_implIS0_S2_EEPS0_, symObjAddr: 0x1280, symBinAddr: 0x1000074D4, symSize: 0x28 }
  - { offset: 0x22658, size: 0x8, addend: 0x0, symName: __ZNSt5tupleIJP4ItemSt14default_deleteIS0_EEEC1ILb1ELb1EEEv, symObjAddr: 0x11C4, symBinAddr: 0x1000074B4, symSize: 0x20 }
  - { offset: 0x2269B, size: 0x8, addend: 0x0, symName: __ZNKSt7__cxx1112basic_stringIcSt11char_traitsIcESaIcEE4dataEv, symObjAddr: 0x1144, symBinAddr: 0x100007498, symSize: 0x1C }
  - { offset: 0x226E7, size: 0x8, addend: 0x0, symName: __ZSteqIcSt11char_traitsIcESaIcEEbRKNSt7__cxx1112basic_stringIT_T0_T1_EESA_, symObjAddr: 0xEA0, symBinAddr: 0x100007418, symSize: 0x80 }
  - { offset: 0x2273A, size: 0x8, addend: 0x0, symName: __ZStltIcSt11char_traitsIcESaIcEEbRKNSt7__cxx1112basic_stringIT_T0_T1_EESA_, symObjAddr: 0xE74, symBinAddr: 0x1000073EC, symSize: 0x2C }
  - { offset: 0x2278D, size: 0x8, addend: 0x0, symName: __ZStneIcSt11char_traitsIcESaIcEEbRKNSt7__cxx1112basic_stringIT_T0_T1_EESA_, symObjAddr: 0xE48, symBinAddr: 0x1000073C0, symSize: 0x2C }
  - { offset: 0x227EA, size: 0x8, addend: 0x0, symName: __ZNKSt10unique_ptrI4ItemSt14default_deleteIS0_EE3getEv, symObjAddr: 0xE2C, symBinAddr: 0x1000073A4, symSize: 0x1C }
  - { offset: 0x22812, size: 0x8, addend: 0x0, symName: __ZNKSt10unique_ptrI4ItemSt14default_deleteIS0_EEptEv, symObjAddr: 0xE10, symBinAddr: 0x100007388, symSize: 0x1C }
  - { offset: 0x2283A, size: 0x8, addend: 0x0, symName: __ZNSt7__cxx1112basic_stringIcSt11char_traitsIcESaIcEEaSERKS4_, symObjAddr: 0xDEC, symBinAddr: 0x100007364, symSize: 0x24 }
  - { offset: 0x22872, size: 0x8, addend: 0x0, symName: __ZNSt15__uniq_ptr_implI4ItemSt14default_deleteIS0_EEaSEOS3_, symObjAddr: 0xDA8, symBinAddr: 0x100007320, symSize: 0x44 }
  - { offset: 0x228CE, size: 0x8, addend: 0x0, symName: __ZNSt7__cxx1112basic_stringIcSt11char_traitsIcESaIcEEC1ERKS4_, symObjAddr: 0xCD8, symBinAddr: 0x100007250, symSize: 0xD0 }
  - { offset: 0x229AE, size: 0x8, addend: 0x0, symName: __ZSt11make_uniqueI4ItemJRS0_EENSt8__detail9_MakeUniqIT_E15__single_objectEDpOT0_, symObjAddr: 0xC2C, symBinAddr: 0x1000071A4, symSize: 0xAC }
  - { offset: 0x22A3A, size: 0x8, addend: 0x0, symName: __ZN4ItemC1ERKS_, symObjAddr: 0xBE4, symBinAddr: 0x10000715C, symSize: 0x48 }
  - { offset: 0x22A66, size: 0x8, addend: 0x0, symName: __ZNKSt10unique_ptrI4ItemSt14default_deleteIS0_EEdeEv, symObjAddr: 0xB78, symBinAddr: 0x1000070F0, symSize: 0x6C }
  - { offset: 0x22ACF, size: 0x8, addend: 0x0, symName: __ZNSt10unique_ptrI4ItemSt14default_deleteIS0_EEC1IS2_vEEDn, symObjAddr: 0xB4C, symBinAddr: 0x1000070C4, symSize: 0x2C }
  - { offset: 0x22B04, size: 0x8, addend: 0x0, symName: __ZNKSt10unique_ptrI4ItemSt14default_deleteIS0_EEcvbEv, symObjAddr: 0xB24, symBinAddr: 0x10000709C, symSize: 0x28 }
  - { offset: 0x22B28, size: 0x8, addend: 0x0, symName: __ZSt11make_uniqueI4ItemJS0_EENSt8__detail9_MakeUniqIT_E15__single_objectEDpOT0_, symObjAddr: 0xAA8, symBinAddr: 0x100007020, symSize: 0x7C }
  - { offset: 0x22BAE, size: 0x8, addend: 0x0, symName: __ZN4ItemC1EOS_, symObjAddr: 0xA60, symBinAddr: 0x100006FD8, symSize: 0x48 }
  - { offset: 0x22C1D, size: 0x8, addend: 0x0, symName: __ZNSt10unique_ptrI4ItemSt14default_deleteIS0_EEC1IS2_vEEv, symObjAddr: 0x9D4, symBinAddr: 0x100006FB0, symSize: 0x28 }
  - { offset: 0x22C66, size: 0x8, addend: 0x0, symName: __ZNSt15__uniq_ptr_dataI4ItemSt14default_deleteIS0_ELb1ELb1EEC1Ev, symObjAddr: 0x9B4, symBinAddr: 0x100006F90, symSize: 0x20 }
  - { offset: 0x22CA2, size: 0x8, addend: 0x0, symName: __ZNSt15__uniq_ptr_implI4ItemSt14default_deleteIS0_EEC2Ev, symObjAddr: 0x994, symBinAddr: 0x100006F70, symSize: 0x20 }
  - { offset: 0x22D28, size: 0x8, addend: 0x0, symName: __ZNSt7__cxx1112basic_stringIcSt11char_traitsIcESaIcEEC1Ev, symObjAddr: 0x7EC, symBinAddr: 0x100006EFC, symSize: 0x74 }
  - { offset: 0x22DD7, size: 0x8, addend: 0x0, symName: __ZlsRSoRK10ItemHandle, symObjAddr: 0x798, symBinAddr: 0x100006ED4, symSize: 0x28 }
  - { offset: 0x22E19, size: 0x8, addend: 0x0, symName: __ZeqRK10ItemHandleS1_, symObjAddr: 0x724, symBinAddr: 0x100006E60, symSize: 0x74 }
  - { offset: 0x22E5B, size: 0x8, addend: 0x0, symName: __ZltRK10ItemHandleS1_, symObjAddr: 0x638, symBinAddr: 0x100006D74, symSize: 0xEC }
  - { offset: 0x22E99, size: 0x8, addend: 0x0, symName: __ZNK10ItemHandle5printERSo, symObjAddr: 0x554, symBinAddr: 0x100006C90, symSize: 0xE4 }
  - { offset: 0x22EE4, size: 0x8, addend: 0x0, symName: __ZNK10ItemHandle3getEv, symObjAddr: 0x538, symBinAddr: 0x100006C74, symSize: 0x1C }
  - { offset: 0x22F10, size: 0x8, addend: 0x0, symName: __ZNK10ItemHandle5priceEv, symObjAddr: 0x4F8, symBinAddr: 0x100006C34, symSize: 0x40 }
  - { offset: 0x22F3C, size: 0x8, addend: 0x0, symName: __ZNK10ItemHandle8categoryEv, symObjAddr: 0x4BC, symBinAddr: 0x100006BF8, symSize: 0x3C }
  - { offset: 0x22F68, size: 0x8, addend: 0x0, symName: __ZNK10ItemHandle4nameB5cxx11Ev, symObjAddr: 0x480, symBinAddr: 0x100006BBC, symSize: 0x3C }
  - { offset: 0x22F94, size: 0x8, addend: 0x0, symName: __ZN10ItemHandleaSERKS_, symObjAddr: 0x414, symBinAddr: 0x100006B50, symSize: 0x6C }
  - { offset: 0x22FCB, size: 0x8, addend: 0x0, symName: __ZNSt10unique_ptrI4ItemSt14default_deleteIS0_EEaSEOS3_, symObjAddr: 0x3EC, symBinAddr: 0x100006B28, symSize: 0x28 }
  - { offset: 0x22FFC, size: 0x8, addend: 0x0, symName: __ZNSt15__uniq_ptr_dataI4ItemSt14default_deleteIS0_ELb1ELb1EEaSEOS3_, symObjAddr: 0x3C4, symBinAddr: 0x100006B00, symSize: 0x28 }
  - { offset: 0x23055, size: 0x8, addend: 0x0, symName: __ZN10ItemHandleC1ERKS_, symObjAddr: 0x360, symBinAddr: 0x100006A9C, symSize: 0x64 }
  - { offset: 0x23085, size: 0x8, addend: 0x0, symName: __ZN10ItemHandleC2ERKS_, symObjAddr: 0x2FC, symBinAddr: 0x100006A38, symSize: 0x64 }
  - { offset: 0x230B1, size: 0x8, addend: 0x0, symName: __ZN10ItemHandle8clonePtrERKSt10unique_ptrI4ItemSt14default_deleteIS1_EE, symObjAddr: 0x29C, symBinAddr: 0x1000069D8, symSize: 0x60 }
  - { offset: 0x23104, size: 0x8, addend: 0x0, symName: __ZN10ItemHandleC1E4Item, symObjAddr: 0x25C, symBinAddr: 0x100006998, symSize: 0x40 }
  - { offset: 0x23156, size: 0x8, addend: 0x0, symName: __ZN10ItemHandleC2E4Item, symObjAddr: 0x21C, symBinAddr: 0x100006958, symSize: 0x40 }
  - { offset: 0x231CC, size: 0x8, addend: 0x0, symName: __ZN10ItemHandleC1ENSt7__cxx1112basic_stringIcSt11char_traitsIcESaIcEEE, symObjAddr: 0x1E0, symBinAddr: 0x10000691C, symSize: 0x3C }
  - { offset: 0x2321E, size: 0x8, addend: 0x0, symName: __ZN10ItemHandleC2ENSt7__cxx1112basic_stringIcSt11char_traitsIcESaIcEEE, symObjAddr: 0x1A4, symBinAddr: 0x1000068E0, symSize: 0x3C }
  - { offset: 0x23268, size: 0x8, addend: 0x0, symName: __ZNSt11char_traitsIcE7compareEPKcS2_m, symObjAddr: 0x60, symBinAddr: 0x1000067F0, symSize: 0xF0 }
  - { offset: 0x232EE, size: 0x8, addend: 0x0, symName: __ZNSt11char_traitsIcE2ltERKcS2_, symObjAddr: 0x28, symBinAddr: 0x1000067B8, symSize: 0x38 }
  - { offset: 0x2B4C2, size: 0x8, addend: 0x0, symName: __ZStL8__ioinit, symObjAddr: 0x6D268, symBinAddr: 0x100020002, symSize: 0x0 }
  - { offset: 0x2C314, size: 0x8, addend: 0x0, symName: __ZNKSt4lessIPKcEclES1_S1_, symObjAddr: 0xBAEC, symBinAddr: 0x100011E00, symSize: 0x54 }
  - { offset: 0x2C3B0, size: 0x8, addend: 0x0, symName: __ZNSt15__new_allocatorIiE8allocateEmPKv, symObjAddr: 0xBA0C, symBinAddr: 0x100011D84, symSize: 0x7C }
  - { offset: 0x2C435, size: 0x8, addend: 0x0, symName: __ZNSt15__new_allocatorIiE10deallocateEPim, symObjAddr: 0xB9DC, symBinAddr: 0x100011D54, symSize: 0x30 }
  - { offset: 0x2C494, size: 0x8, addend: 0x0, symName: __ZNSt7__cxx1112basic_stringIcSt11char_traitsIcESaIcEE5clearEv, symObjAddr: 0xB9B8, symBinAddr: 0x100011D30, symSize: 0x24 }
  - { offset: 0x2C507, size: 0x8, addend: 0x0, symName: __ZNSt7__cxx1112basic_stringIcSt11char_traitsIcESaIcEE9_M_mutateEmmPKcm, symObjAddr: 0xB510, symBinAddr: 0x100011BD8, symSize: 0x158 }
  - { offset: 0x2C5A8, size: 0x8, addend: 0x0, symName: __ZNSt7__cxx1112basic_stringIcSt11char_traitsIcESaIcEE15_M_replace_coldEPcmPKcmm, symObjAddr: 0xB378, symBinAddr: 0x100011A40, symSize: 0x198 }
  - { offset: 0x2C664, size: 0x8, addend: 0x0, symName: __ZNSt7__cxx1112basic_stringIcSt11char_traitsIcESaIcEE7_S_moveEPcPKcm, symObjAddr: 0xB32C, symBinAddr: 0x1000119F4, symSize: 0x4C }
  - { offset: 0x2C6B0, size: 0x8, addend: 0x0, symName: __ZNKSt7__cxx1112basic_stringIcSt11char_traitsIcESaIcEE11_M_disjunctEPKc, symObjAddr: 0xB2A8, symBinAddr: 0x100011970, symSize: 0x84 }
  - { offset: 0x2C6E4, size: 0x8, addend: 0x0, symName: __ZSt18uninitialized_copyIPKiPiET0_T_S4_S3_, symObjAddr: 0xB204, symBinAddr: 0x1000118F4, symSize: 0x7C }
  - { offset: 0x2C7D7, size: 0x8, addend: 0x0, symName: __ZNSt6vectorIiSaIiEE11_S_max_sizeERKS0_, symObjAddr: 0xB1B0, symBinAddr: 0x1000118A0, symSize: 0x54 }
  - { offset: 0x2C8D0, size: 0x8, addend: 0x0, symName: __ZNSt12_Vector_baseIiSaIiEE17_Vector_impl_dataC2Ev, symObjAddr: 0xB184, symBinAddr: 0x100011874, symSize: 0x2C }
  - { offset: 0x2C919, size: 0x8, addend: 0x0, symName: __ZNSt23mersenne_twister_engineIjLm32ELm624ELm397ELm31ELj2567483615ELm11ELj4294967295ELm7ELj2636928640ELm15ELj4022730752ELm18ELj1812433253EE11_M_gen_randEv, symObjAddr: 0xAFC4, symBinAddr: 0x1000116B4, symSize: 0x1C0 }
  - { offset: 0x2CA4E, size: 0x8, addend: 0x0, symName: __ZNSt4pairImmEC1ImmLb1EEEOT_OT0_, symObjAddr: 0xAF78, symBinAddr: 0x100011668, symSize: 0x4C }
  - { offset: 0x2CAD8, size: 0x8, addend: 0x0, symName: __ZNSt7__cxx1112basic_stringIcSt11char_traitsIcESaIcEEaSEOS4_, symObjAddr: 0xAD20, symBinAddr: 0x100011410, symSize: 0x258 }
  - { offset: 0x2CBFE, size: 0x8, addend: 0x0, symName: __ZNSt8__detail4_ModIjLj624ELj1ELj0ELb1ELb1EE6__calcEj, symObjAddr: 0xAC08, symBinAddr: 0x1000113D8, symSize: 0x38 }
  - { offset: 0x2CC35, size: 0x8, addend: 0x0, symName: __ZNSt8__detail4_ModIjLj0ELj1ELj0ELb1ELb0EE6__calcEj, symObjAddr: 0xABEC, symBinAddr: 0x1000113BC, symSize: 0x1C }
  - { offset: 0x2CC75, size: 0x8, addend: 0x0, symName: __ZNSt7__cxx1112basic_stringIcSt11char_traitsIcESaIcEE9_M_appendEPKcm, symObjAddr: 0xAA5C, symBinAddr: 0x1000112F4, symSize: 0xC8 }
  - { offset: 0x2CCCE, size: 0x8, addend: 0x0, symName: __ZNKSt7__cxx1112basic_stringIcSt11char_traitsIcESaIcEE15_M_check_lengthEmmPKc, symObjAddr: 0xA9E8, symBinAddr: 0x100011280, symSize: 0x74 }
  - { offset: 0x2CD26, size: 0x8, addend: 0x0, symName: __ZNKSt7__cxx1112basic_stringIcSt11char_traitsIcESaIcEE8_M_limitEmm, symObjAddr: 0xA944, symBinAddr: 0x100011214, symSize: 0x6C }
  - { offset: 0x2CD7F, size: 0x8, addend: 0x0, symName: __ZNKSt7__cxx1112basic_stringIcSt11char_traitsIcESaIcEE8_M_checkEmPKc, symObjAddr: 0xA8CC, symBinAddr: 0x10001119C, symSize: 0x78 }
  - { offset: 0x2CDCC, size: 0x8, addend: 0x0, symName: __ZNSt7__cxx1112basic_stringIcSt11char_traitsIcESaIcEE10_M_replaceEmmPKcm, symObjAddr: 0xA740, symBinAddr: 0x100011010, symSize: 0x18C }
  - { offset: 0x2CEEB, size: 0x8, addend: 0x0, symName: __ZSt8_DestroyIPiEvT_S1_, symObjAddr: 0xA6BC, symBinAddr: 0x100010FF8, symSize: 0x18 }
  - { offset: 0x2CF2A, size: 0x8, addend: 0x0, symName: __ZSt22__uninitialized_copy_aIPKiS1_PiiET1_T_T0_S3_RSaIT2_E, symObjAddr: 0xA68C, symBinAddr: 0x100010FC8, symSize: 0x30 }
  - { offset: 0x2CFCB, size: 0x8, addend: 0x0, symName: __ZNSt12_Vector_baseIiSaIiEE11_M_allocateEm, symObjAddr: 0xA63C, symBinAddr: 0x100010F78, symSize: 0x50 }
  - { offset: 0x2D029, size: 0x8, addend: 0x0, symName: __ZNSt6vectorIiSaIiEE17_S_check_init_lenEmRKS0_, symObjAddr: 0xA5B8, symBinAddr: 0x100010EF4, symSize: 0x84 }
  - { offset: 0x2D0D6, size: 0x8, addend: 0x0, symName: __ZNSt12_Vector_baseIiSaIiEE13_M_deallocateEPim, symObjAddr: 0xA560, symBinAddr: 0x100010E9C, symSize: 0x58 }
  - { offset: 0x2D174, size: 0x8, addend: 0x0, symName: __ZNSt12_Vector_baseIiSaIiEE12_Vector_implC1ERKS0_, symObjAddr: 0xA514, symBinAddr: 0x100010E50, symSize: 0x4C }
  - { offset: 0x2D1F7, size: 0x8, addend: 0x0, symName: __ZNSt23mersenne_twister_engineIjLm32ELm624ELm397ELm31ELj2567483615ELm11ELj4294967295ELm7ELj2636928640ELm15ELj4022730752ELm18ELj1812433253EEclEv, symObjAddr: 0xA460, symBinAddr: 0x100010D9C, symSize: 0xB4 }
  - { offset: 0x2D232, size: 0x8, addend: 0x0, symName: __ZNSt24uniform_int_distributionImE5_S_ndIySt23mersenne_twister_engineIjLm32ELm624ELm397ELm31ELj2567483615ELm11ELj4294967295ELm7ELj2636928640ELm15ELj4022730752ELm18ELj1812433253EEjEET1_RT0_S4_, symObjAddr: 0xA3BC, symBinAddr: 0x100010CF8, symSize: 0xA4 }
  - { offset: 0x2D2CF, size: 0x8, addend: 0x0, symName: __ZNKSt24uniform_int_distributionImE10param_type1aEv, symObjAddr: 0xA3A4, symBinAddr: 0x100010CE0, symSize: 0x18 }
  - { offset: 0x2D2F7, size: 0x8, addend: 0x0, symName: __ZNKSt24uniform_int_distributionImE10param_type1bEv, symObjAddr: 0xA38C, symBinAddr: 0x100010CC8, symSize: 0x18 }
  - { offset: 0x2D31B, size: 0x8, addend: 0x0, symName: __ZSt9make_pairImmESt4pairINSt25__strip_reference_wrapperINSt5decayIT_E4typeEE6__typeENS1_INS2_IT0_E4typeEE6__typeEEOS3_OS8_, symObjAddr: 0xA350, symBinAddr: 0x100010C8C, symSize: 0x3C }
  - { offset: 0x2D3A9, size: 0x8, addend: 0x0, symName: __ZSt4swapI10ItemHandleENSt9enable_ifIXsrSt6__and_IJSt6__not_ISt15__is_tuple_likeIT_EESt21is_move_constructibleIS5_ESt18is_move_assignableIS5_EEE5valueEvE4typeERS5_SF_, symObjAddr: 0xA2F4, symBinAddr: 0x100010C30, symSize: 0x5C }
  - { offset: 0x2D45F, size: 0x8, addend: 0x0, symName: __ZN10ItemHandleaSEOS_, symObjAddr: 0xA2B8, symBinAddr: 0x100010BF4, symSize: 0x3C }
  - { offset: 0x2D4A0, size: 0x8, addend: 0x0, symName: __ZNSt8__detail5__modIjLj624ELj1ELj0EEET_S1_, symObjAddr: 0xA1B8, symBinAddr: 0x100010BD8, symSize: 0x1C }
  - { offset: 0x2D4F2, size: 0x8, addend: 0x0, symName: __ZNSt8__detail5__modIjLj0ELj1ELj0EEET_S1_, symObjAddr: 0xA19C, symBinAddr: 0x100010BBC, symSize: 0x1C }
  - { offset: 0x2D55A, size: 0x8, addend: 0x0, symName: __ZNSt7__cxx1112basic_stringIcSt11char_traitsIcESaIcEE6appendEPKcm, symObjAddr: 0x9F24, symBinAddr: 0x100010B78, symSize: 0x44 }
  - { offset: 0x2D5C7, size: 0x8, addend: 0x0, symName: __ZNSt7__cxx1112basic_stringIcSt11char_traitsIcESaIcEEC1ERKS3_, symObjAddr: 0x9ECC, symBinAddr: 0x100010B20, symSize: 0x58 }
  - { offset: 0x2D615, size: 0x8, addend: 0x0, symName: __ZNSt7__cxx1112basic_stringIcSt11char_traitsIcESaIcEE7replaceEmmPKcm, symObjAddr: 0x9E28, symBinAddr: 0x100010AB4, symSize: 0x6C }
  - { offset: 0x2D679, size: 0x8, addend: 0x0, symName: __ZNSt7__cxx1112basic_stringIcSt11char_traitsIcESaIcEE13_S_copy_charsIPKcEEvPcT_S9_, symObjAddr: 0x9DE0, symBinAddr: 0x100010A6C, symSize: 0x48 }
  - { offset: 0x2D791, size: 0x8, addend: 0x0, symName: __ZNSt12_Vector_baseIiSaIiEE19_M_get_Tp_allocatorEv, symObjAddr: 0x9B00, symBinAddr: 0x100010A58, symSize: 0x14 }
  - { offset: 0x2D7B9, size: 0x8, addend: 0x0, symName: __ZNSt6vectorIiSaIiEE21_M_range_initialize_nIPKiS4_EEvT_T0_m, symObjAddr: 0x9A50, symBinAddr: 0x1000109A8, symSize: 0xB0 }
  - { offset: 0x2D854, size: 0x8, addend: 0x0, symName: __ZNKSt16initializer_listIiE4sizeEv, symObjAddr: 0x9A38, symBinAddr: 0x100010990, symSize: 0x18 }
  - { offset: 0x2D87C, size: 0x8, addend: 0x0, symName: __ZNKSt16initializer_listIiE3endEv, symObjAddr: 0x9A00, symBinAddr: 0x100010958, symSize: 0x38 }
  - { offset: 0x2D8A4, size: 0x8, addend: 0x0, symName: __ZNKSt16initializer_listIiE5beginEv, symObjAddr: 0x99E8, symBinAddr: 0x100010940, symSize: 0x18 }
  - { offset: 0x2D8E4, size: 0x8, addend: 0x0, symName: __ZNSt12_Vector_baseIiSaIiEED2Ev, symObjAddr: 0x9998, symBinAddr: 0x1000108F0, symSize: 0x50 }
  - { offset: 0x2D92D, size: 0x8, addend: 0x0, symName: __ZNSt12_Vector_baseIiSaIiEEC2ERKS0_, symObjAddr: 0x9970, symBinAddr: 0x1000108C8, symSize: 0x28 }
  - { offset: 0x2D975, size: 0x8, addend: 0x0, symName: __ZNSt12_Vector_baseIiSaIiEE12_Vector_implD1Ev, symObjAddr: 0x9944, symBinAddr: 0x10001089C, symSize: 0x2C }
  - { offset: 0x2D9D2, size: 0x8, addend: 0x0, symName: __ZNSt15__new_allocatorIiED2Ev, symObjAddr: 0x9930, symBinAddr: 0x100010888, symSize: 0x14 }
  - { offset: 0x2DA0A, size: 0x8, addend: 0x0, symName: __ZNSt24uniform_int_distributionImEclISt23mersenne_twister_engineIjLm32ELm624ELm397ELm31ELj2567483615ELm11ELj4294967295ELm7ELj2636928640ELm15ELj4022730752ELm18ELj1812433253EEEEmRT_RKNS0_10param_typeE, symObjAddr: 0x97F4, symBinAddr: 0x10001074C, symSize: 0x13C }
  - { offset: 0x2DBA1, size: 0x8, addend: 0x0, symName: __ZNSt24uniform_int_distributionImE10param_typeC1Emm, symObjAddr: 0x9774, symBinAddr: 0x1000106CC, symSize: 0x80 }
  - { offset: 0x2DC15, size: 0x8, addend: 0x0, symName: __ZNSt24uniform_int_distributionImEC1Ev, symObjAddr: 0x974C, symBinAddr: 0x1000106A4, symSize: 0x28 }
  - { offset: 0x2DC35, size: 0x8, addend: 0x0, symName: __ZSt22__gen_two_uniform_intsImRSt23mersenne_twister_engineIjLm32ELm624ELm397ELm31ELj2567483615ELm11ELj4294967295ELm7ELj2636928640ELm15ELj4022730752ELm18ELj1812433253EEESt4pairIT_S4_ES4_S4_OT0_, symObjAddr: 0x96C8, symBinAddr: 0x100010620, symSize: 0x84 }
  - { offset: 0x2DCDA, size: 0x8, addend: 0x0, symName: __ZSt9iter_swapIN9__gnu_cxx17__normal_iteratorIP10ItemHandleSt6vectorIS2_SaIS2_EEEES7_EvT_T0_, symObjAddr: 0x96A0, symBinAddr: 0x1000105F8, symSize: 0x28 }
  - { offset: 0x2DD64, size: 0x8, addend: 0x0, symName: __ZNSt24uniform_int_distributionImEclISt23mersenne_twister_engineIjLm32ELm624ELm397ELm31ELj2567483615ELm11ELj4294967295ELm7ELj2636928640ELm15ELj4022730752ELm18ELj1812433253EEEEmRT_, symObjAddr: 0x9674, symBinAddr: 0x1000105CC, symSize: 0x2C }
  - { offset: 0x2DDED, size: 0x8, addend: 0x0, symName: __ZNSt24uniform_int_distributionImEC1Emm, symObjAddr: 0x9644, symBinAddr: 0x10001059C, symSize: 0x30 }
  - { offset: 0x2DE47, size: 0x8, addend: 0x0, symName: __ZNSt23mersenne_twister_engineIjLm32ELm624ELm397ELm31ELj2567483615ELm11ELj4294967295ELm7ELj2636928640ELm15ELj4022730752ELm18ELj1812433253EE4seedEj, symObjAddr: 0x9578, symBinAddr: 0x1000104D0, symSize: 0xCC }
  - { offset: 0x2DEDC, size: 0x8, addend: 0x0, symName: __ZSt12__str_concatINSt7__cxx1112basic_stringIcSt11char_traitsIcESaIcEEEET_PKNS6_10value_typeENS6_9size_typeES9_SA_RKNS6_14allocator_typeE, symObjAddr: 0x90C4, symBinAddr: 0x1000103F0, symSize: 0xE0 }
  - { offset: 0x2E01D, size: 0x8, addend: 0x0, symName: __ZNKSt7__cxx1112basic_stringIcSt11char_traitsIcESaIcEE13get_allocatorEv, symObjAddr: 0x9074, symBinAddr: 0x1000103A0, symSize: 0x50 }
  - { offset: 0x2E0DC, size: 0x8, addend: 0x0, symName: __ZNSt7__cxx1112basic_stringIcSt11char_traitsIcESaIcEE6insertEmPKc, symObjAddr: 0x8FBC, symBinAddr: 0x100010364, symSize: 0x3C }
  - { offset: 0x2E124, size: 0x8, addend: 0x0, symName: __ZNSt7__cxx1112basic_stringIcSt11char_traitsIcESaIcEE12_M_constructIPKcEEvT_S8_St20forward_iterator_tag, symObjAddr: 0x8EDC, symBinAddr: 0x100010284, symSize: 0xE0 }
  - { offset: 0x2E21B, size: 0x8, addend: 0x0, symName: __ZZNSt7__cxx1112basic_stringIcSt11char_traitsIcESaIcEE12_M_constructIPKcEEvT_S8_St20forward_iterator_tagEN6_GuardC1EPS4_, symObjAddr: 0x8E84, symBinAddr: 0x10001022C, symSize: 0x24 }
  - { offset: 0x2E24B, size: 0x8, addend: 0x0, symName: __ZZNSt7__cxx1112basic_stringIcSt11char_traitsIcESaIcEE12_M_constructIPKcEEvT_S8_St20forward_iterator_tagEN6_GuardD1Ev, symObjAddr: 0x8EA8, symBinAddr: 0x100010250, symSize: 0x34 }
  - { offset: 0x2E34B, size: 0x8, addend: 0x0, symName: __ZNSt7__cxx1112basic_stringIcSt11char_traitsIcESaIcEE12_Alloc_hiderC1EPcRKS3_, symObjAddr: 0x8E34, symBinAddr: 0x1000101DC, symSize: 0x50 }
  - { offset: 0x2E435, size: 0x8, addend: 0x0, symName: __ZNSt7__cxx1112basic_stringIcSt11char_traitsIcESaIcEE7reserveEm, symObjAddr: 0x8C24, symBinAddr: 0x100010134, symSize: 0xA8 }
  - { offset: 0x2E49F, size: 0x8, addend: 0x0, symName: __ZN9__gnu_cxx11char_traitsIcE2eqERKcS3_, symObjAddr: 0x8AD4, symBinAddr: 0x100010104, symSize: 0x30 }
  - { offset: 0x2E4D9, size: 0x8, addend: 0x0, symName: __ZNKSt6vectorIiSaIiEE4sizeEv, symObjAddr: 0x8A94, symBinAddr: 0x1000100C4, symSize: 0x40 }
  - { offset: 0x2E526, size: 0x8, addend: 0x0, symName: __ZNSt6vectorIiSaIiEE3endEv, symObjAddr: 0x8A64, symBinAddr: 0x100010094, symSize: 0x30 }
  - { offset: 0x2E576, size: 0x8, addend: 0x0, symName: __ZNSt6vectorIiSaIiEE5beginEv, symObjAddr: 0x8A38, symBinAddr: 0x100010068, symSize: 0x2C }
  - { offset: 0x2E5DE, size: 0x8, addend: 0x0, symName: __ZNSt6vectorIiSaIiEED1Ev, symObjAddr: 0x89DC, symBinAddr: 0x10001000C, symSize: 0x5C }
  - { offset: 0x2E666, size: 0x8, addend: 0x0, symName: __ZNSt6vectorIiSaIiEEC1ESt16initializer_listIiERKS0_, symObjAddr: 0x8960, symBinAddr: 0x10000FF90, symSize: 0x7C }
  - { offset: 0x2E6C2, size: 0x8, addend: 0x0, symName: __ZNSt6vectorI10ItemHandleSaIS0_EEixEm, symObjAddr: 0x88D0, symBinAddr: 0x10000FF00, symSize: 0x90 }
  - { offset: 0x2E711, size: 0x8, addend: 0x0, symName: __ZSt7shuffleIN9__gnu_cxx17__normal_iteratorIP10ItemHandleSt6vectorIS2_SaIS2_EEEERSt23mersenne_twister_engineIjLm32ELm624ELm397ELm31ELj2567483615ELm11ELj4294967295ELm7ELj2636928640ELm15ELj4022730752ELm18ELj1812433253EEEvT_SB_OT0_, symObjAddr: 0x84A8, symBinAddr: 0x10000FAD8, symSize: 0x428 }
  - { offset: 0x2EE94, size: 0x8, addend: 0x0, symName: __ZNSt23mersenne_twister_engineIjLm32ELm624ELm397ELm31ELj2567483615ELm11ELj4294967295ELm7ELj2636928640ELm15ELj4022730752ELm18ELj1812433253EEC1Ej, symObjAddr: 0x8424, symBinAddr: 0x10000FAB0, symSize: 0x28 }
  - { offset: 0x2EEBC, size: 0x8, addend: 0x0, symName: __ZStplIcSt11char_traitsIcESaIcEENSt7__cxx1112basic_stringIT_T0_T1_EEPKS5_RKS8_, symObjAddr: 0x8258, symBinAddr: 0x10000FA00, symSize: 0xB0 }
  - { offset: 0x2EF53, size: 0x8, addend: 0x0, symName: __ZNKSt6vectorI10ItemHandleSaIS0_EEixEm, symObjAddr: 0x8008, symBinAddr: 0x10000F970, symSize: 0x90 }
  - { offset: 0x2EFA2, size: 0x8, addend: 0x0, symName: __ZStplIcSt11char_traitsIcESaIcEENSt7__cxx1112basic_stringIT_T0_T1_EERKS8_PKS5_, symObjAddr: 0x7F0C, symBinAddr: 0x10000F8C0, symSize: 0xB0 }
  - { offset: 0x2F093, size: 0x8, addend: 0x0, symName: __ZNSt7__cxx1112basic_stringIcSt11char_traitsIcESaIcEEC1IS3_EEPKcRKS3_, symObjAddr: 0x7E0C, symBinAddr: 0x10000F824, symSize: 0x9C }
  - { offset: 0x2F0F7, size: 0x8, addend: 0x0, symName: __ZStplIcSt11char_traitsIcESaIcEENSt7__cxx1112basic_stringIT_T0_T1_EEPKS5_OS8_, symObjAddr: 0x7D88, symBinAddr: 0x10000F7D8, symSize: 0x4C }
  - { offset: 0x2F198, size: 0x8, addend: 0x0, symName: __ZNSt7__cxx1112basic_stringIcSt11char_traitsIcESaIcEE22__resize_and_overwriteIZNS_9to_stringEiEUlPcmE_EEvmT_, symObjAddr: 0x7BF0, symBinAddr: 0x10000F74C, symSize: 0x8C }
  - { offset: 0x2F281, size: 0x8, addend: 0x0, symName: __ZZNSt7__cxx1112basic_stringIcSt11char_traitsIcESaIcEE22__resize_and_overwriteIZNS_9to_stringEiEUlPcmE_EEvmT_EN11_TerminatorD1Ev, symObjAddr: 0x7BBC, symBinAddr: 0x10000F718, symSize: 0x34 }
  - { offset: 0x2F2E5, size: 0x8, addend: 0x0, symName: __ZNSt8__detail18__to_chars_10_implIjEEvPcjT_, symObjAddr: 0x7A08, symBinAddr: 0x10000F564, symSize: 0x1B4 }
  - { offset: 0x2F3A1, size: 0x8, addend: 0x0, symName: __ZNKSt7__cxx1112basic_stringIcSt11char_traitsIcESaIcEE5c_strEv, symObjAddr: 0x7924, symBinAddr: 0x10000F548, symSize: 0x1C }
  - { offset: 0x2F3C5, size: 0x8, addend: 0x0, symName: __ZN9__gnu_cxx11char_traitsIcE6lengthEPKc, symObjAddr: 0x78CC, symBinAddr: 0x10000F4F0, symSize: 0x58 }
  - { offset: 0x2F405, size: 0x8, addend: 0x0, symName: _main, symObjAddr: 0x78B0, symBinAddr: 0x10000F4D4, symSize: 0x1C }
  - { offset: 0x2F432, size: 0x8, addend: 0x0, symName: __ZN20BSTEXTREMEERASETESTS11runAllTestsEv, symObjAddr: 0x74A4, symBinAddr: 0x10000F0C8, symSize: 0x40C }
  - { offset: 0x2F47C, size: 0x8, addend: 0x0, symName: __ZN20BSTEXTREMEERASETESTS35testEraseWithComplexSuccessorChainsEv, symObjAddr: 0x6C38, symBinAddr: 0x10000E85C, symSize: 0x86C }
  - { offset: 0x2FA22, size: 0x8, addend: 0x0, symName: __ZN20BSTEXTREMEERASETESTS30testEraseWithDuplicateAttemptsEv, symObjAddr: 0x63FC, symBinAddr: 0x10000E020, symSize: 0x83C }
  - { offset: 0x2FFF3, size: 0x8, addend: 0x0, symName: __ZN20BSTEXTREMEERASETESTS25testEraseFromMinimalTreesEv, symObjAddr: 0x58C8, symBinAddr: 0x10000D4EC, symSize: 0xB34 }
  - { offset: 0x30814, size: 0x8, addend: 0x0, symName: __ZN20BSTEXTREMEERASETESTS27testEraseAlternatingPatternEv, symObjAddr: 0x5280, symBinAddr: 0x10000CEA4, symSize: 0x648 }
  - { offset: 0x30A7E, size: 0x8, addend: 0x0, symName: __ZN20BSTEXTREMEERASETESTS27testEraseEntireTreeOneByOneEv, symObjAddr: 0x4B48, symBinAddr: 0x10000C76C, symSize: 0x738 }
  - { offset: 0x30D84, size: 0x8, addend: 0x0, symName: __ZN20BSTEXTREMEERASETESTS22testRandomErasePatternEv, symObjAddr: 0x442C, symBinAddr: 0x10000C050, symSize: 0x71C }
  - { offset: 0x30FCE, size: 0x8, addend: 0x0, symName: __ZN20BSTEXTREMEERASETESTS21testEraseFromLargeBSTEv, symObjAddr: 0x3C38, symBinAddr: 0x10000B85C, symSize: 0x7F4 }
  - { offset: 0x313CA, size: 0x8, addend: 0x0, symName: __ZN20BSTEXTREMEERASETESTS34testEraseMultipleSuccessorsInChainEv, symObjAddr: 0x3050, symBinAddr: 0x10000AC74, symSize: 0xBE8 }
  - { offset: 0x31B96, size: 0x8, addend: 0x0, symName: __ZN20BSTEXTREMEERASETESTS41testEraseSuccessorWithComplexRightSubtreeEv, symObjAddr: 0x233C, symBinAddr: 0x100009F60, symSize: 0xD14 }
  - { offset: 0x32533, size: 0x8, addend: 0x0, symName: __ZN20BSTEXTREMEERASETESTS33testEraseCompletelyLeftSkewedTreeEv, symObjAddr: 0x1B00, symBinAddr: 0x100009724, symSize: 0x83C }
  - { offset: 0x32AF1, size: 0x8, addend: 0x0, symName: __ZN20BSTEXTREMEERASETESTS29testEraseCompletelySkewedTreeEv, symObjAddr: 0x12C4, symBinAddr: 0x100008EE8, symSize: 0x83C }
  - { offset: 0x330AF, size: 0x8, addend: 0x0, symName: __ZN20BSTEXTREMEERASETESTS27testEraseWithIdenticalNamesEv, symObjAddr: 0x97C, symBinAddr: 0x10000860C, symSize: 0x8DC }
  - { offset: 0x3363A, size: 0x8, addend: 0x0, symName: __ZN20BSTEXTREMEERASETESTS23buildCompleteBinaryTreeER3BSTi, symObjAddr: 0x880, symBinAddr: 0x100008510, symSize: 0xFC }
  - { offset: 0x336B2, size: 0x8, addend: 0x0, symName: __ZN20BSTEXTREMEERASETESTS10createItemERKNSt7__cxx1112basic_stringIcSt11char_traitsIcESaIcEEEd, symObjAddr: 0x7D0, symBinAddr: 0x100008460, symSize: 0xB0 }
  - { offset: 0x336F9, size: 0x8, addend: 0x0, symName: __ZN20BSTEXTREMEERASETESTS15isInorderSortedERKSt6vectorI10ItemHandleSaIS1_EE, symObjAddr: 0x700, symBinAddr: 0x1000083B0, symSize: 0xB0 }
  - { offset: 0x33753, size: 0x8, addend: 0x0, symName: __ZN20BSTEXTREMEERASETESTS8myAssertEbRKNSt7__cxx1112basic_stringIcSt11char_traitsIcESaIcEEE, symObjAddr: 0x694, symBinAddr: 0x100008344, symSize: 0x6C }
  - { offset: 0x33799, size: 0x8, addend: 0x0, symName: __ZNSt13random_deviceclEv, symObjAddr: 0x678, symBinAddr: 0x100008328, symSize: 0x1C }
  - { offset: 0x337D9, size: 0x8, addend: 0x0, symName: __ZNSt13random_deviceD1Ev, symObjAddr: 0x658, symBinAddr: 0x100008308, symSize: 0x20 }
  - { offset: 0x33815, size: 0x8, addend: 0x0, symName: __ZNSt13random_deviceC1Ev, symObjAddr: 0x5C0, symBinAddr: 0x100008270, symSize: 0x98 }
  - { offset: 0x338BA, size: 0x8, addend: 0x0, symName: __ZN3BST7printBTENSt7__cxx1112basic_stringIcSt11char_traitsIcESaIcEEEPKNS_4NodeEb, symObjAddr: 0x434, symBinAddr: 0x1000080E4, symSize: 0x18C }
  - { offset: 0x33914, size: 0x8, addend: 0x0, symName: __ZN3BST7printBTEv, symObjAddr: 0x360, symBinAddr: 0x10000803C, symSize: 0xA8 }
  - { offset: 0x339BA, size: 0x8, addend: 0x0, symName: __ZNK3BST4sizeEv, symObjAddr: 0x348, symBinAddr: 0x100008024, symSize: 0x18 }
  - { offset: 0x339DE, size: 0x8, addend: 0x0, symName: __ZNSt8__detail14__to_chars_lenIjEEjT_i, symObjAddr: 0x238, symBinAddr: 0x100007F4C, symSize: 0xD8 }
  - { offset: 0x33A5D, size: 0x8, addend: 0x0, symName: __ZNSt7__cxx119to_stringEi, symObjAddr: 0x188, symBinAddr: 0x100007E9C, symSize: 0xB0 }
  - { offset: 0x33AEF, size: 0x8, addend: 0x0, symName: __ZZNSt7__cxx119to_stringEiENKUlPcmE_clES0_m, symObjAddr: 0x12C, symBinAddr: 0x100007E40, symSize: 0x5C }
  - { offset: 0x33B97, size: 0x8, addend: 0x0, symName: __ZNSt11char_traitsIcE4moveEPcPKcm, symObjAddr: 0x94, symBinAddr: 0x100007DFC, symSize: 0x44 }
  - { offset: 0x33BDF, size: 0x8, addend: 0x0, symName: __ZNSt11char_traitsIcE6lengthEPKc, symObjAddr: 0x58, symBinAddr: 0x100007DC0, symSize: 0x3C }
  - { offset: 0x398C3, size: 0x8, addend: 0x0, symName: __ZNSt7__cxx1112basic_stringIcSt11char_traitsIcESaIcEE8_M_eraseEmm, symObjAddr: 0x1AC8, symBinAddr: 0x1000129CC, symSize: 0xC0 }
  - { offset: 0x39999, size: 0x8, addend: 0x0, symName: __ZNSt7__cxx1112basic_stringIcSt11char_traitsIcESaIcEEixEm, symObjAddr: 0x1A44, symBinAddr: 0x100012948, symSize: 0x84 }
  - { offset: 0x39A0E, size: 0x8, addend: 0x0, symName: __ZNSt7__cxx1112basic_stringIcSt11char_traitsIcESaIcEE8pop_backEv, symObjAddr: 0xFE8, symBinAddr: 0x1000128D0, symSize: 0x78 }
  - { offset: 0x39A51, size: 0x8, addend: 0x0, symName: __ZNSt7__cxx1112basic_stringIcSt11char_traitsIcESaIcEE4backEv, symObjAddr: 0xF78, symBinAddr: 0x100012860, symSize: 0x70 }
  - { offset: 0x39A94, size: 0x8, addend: 0x0, symName: __ZNSt7__cxx1112basic_stringIcSt11char_traitsIcESaIcEE5eraseEN9__gnu_cxx17__normal_iteratorIPKcS4_EE, symObjAddr: 0xEF4, symBinAddr: 0x1000127DC, symSize: 0x84 }
  - { offset: 0x39B97, size: 0x8, addend: 0x0, symName: __ZNSt7__cxx1112basic_stringIcSt11char_traitsIcESaIcEE5beginEv, symObjAddr: 0xEC4, symBinAddr: 0x1000127AC, symSize: 0x30 }
  - { offset: 0x39BE5, size: 0x8, addend: 0x0, symName: __ZNSt7__cxx1112basic_stringIcSt11char_traitsIcESaIcEE5frontEv, symObjAddr: 0xE60, symBinAddr: 0x100012748, symSize: 0x64 }
  - { offset: 0x39C28, size: 0x8, addend: 0x0, symName: __ZNKSt7__cxx1112basic_stringIcSt11char_traitsIcESaIcEE5emptyEv, symObjAddr: 0xE3C, symBinAddr: 0x100012724, symSize: 0x24 }
  - { offset: 0x39C58, size: 0x8, addend: 0x0, symName: __ZSteqIcSt11char_traitsIcESaIcEEbRKNSt7__cxx1112basic_stringIT_T0_T1_EEPKS5_, symObjAddr: 0xDC8, symBinAddr: 0x1000126B0, symSize: 0x74 }
  - { offset: 0x39CEF, size: 0x8, addend: 0x0, symName: __ZN9__gnu_cxx6__stoaIddcJEEET0_PFT_PKT1_PPS3_DpT2_EPKcS5_PmS9_, symObjAddr: 0xAE8, symBinAddr: 0x1000125A4, symSize: 0x10C }
  - { offset: 0x39E12, size: 0x8, addend: 0x0, symName: __ZZN9__gnu_cxx6__stoaIddcJEEET0_PFT_PKT1_PPS3_DpT2_EPKcS5_PmS9_EN11_Save_errnoC1Ev, symObjAddr: 0xA50, symBinAddr: 0x10001250C, symSize: 0x30 }
  - { offset: 0x39E3A, size: 0x8, addend: 0x0, symName: __ZZN9__gnu_cxx6__stoaIddcJEEET0_PFT_PKT1_PPS3_DpT2_EPKcS5_PmS9_EN11_Save_errnoD1Ev, symObjAddr: 0xA80, symBinAddr: 0x10001253C, symSize: 0x50 }
  - { offset: 0x39E80, size: 0x8, addend: 0x0, symName: __ZZN9__gnu_cxx6__stoaIddcJEEET0_PFT_PKT1_PPS3_DpT2_EPKcS5_PmS9_EN10_Range_chk6_S_chkEdSt17integral_constantIbLb0EE, symObjAddr: 0xAD0, symBinAddr: 0x10001258C, symSize: 0x18 }
  - { offset: 0x39F39, size: 0x8, addend: 0x0, symName: __ZN8provided7readCSVERKNSt7__cxx1112basic_stringIcSt11char_traitsIcESaIcEEERSt6vectorI10ItemHandleSaIS9_EERm, symObjAddr: 0x810, symBinAddr: 0x100012340, symSize: 0x1CC }
  - { offset: 0x3A039, size: 0x8, addend: 0x0, symName: __ZN8providedL9parseLineERKNSt7__cxx1112basic_stringIcSt11char_traitsIcESaIcEEER10ItemHandle, symObjAddr: 0x5AC, symBinAddr: 0x1000120DC, symSize: 0x264 }
  - { offset: 0x3A120, size: 0x8, addend: 0x0, symName: __ZZN8providedL9parseLineERKNSt7__cxx1112basic_stringIcSt11char_traitsIcESaIcEEER10ItemHandleENKUlRS5_E_clESA_, symObjAddr: 0x360, symBinAddr: 0x100011FB0, symSize: 0x12C }
  - { offset: 0x3A203, size: 0x8, addend: 0x0, symName: __ZN8provided13parseCategoryERKNSt7__cxx1112basic_stringIcSt11char_traitsIcESaIcEEER8Category, symObjAddr: 0x2B8, symBinAddr: 0x100011F08, symSize: 0xA8 }
  - { offset: 0x3A239, size: 0x8, addend: 0x0, symName: __ZStorSt13_Ios_OpenmodeS_, symObjAddr: 0x298, symBinAddr: 0x100011EE8, symSize: 0x20 }
  - { offset: 0x3A26F, size: 0x8, addend: 0x0, symName: __ZNSt7__cxx114stodERKNS_12basic_stringIcSt11char_traitsIcESaIcEEEPm, symObjAddr: 0x254, symBinAddr: 0x100011EA4, symSize: 0x44 }
  - { offset: 0x3A2BD, size: 0x8, addend: 0x0, symName: __Z18insertionSortItemsRSt6vectorI10ItemHandleSaIS0_EEb, symObjAddr: 0x0, symBinAddr: 0x100012A8C, symSize: 0x1C }
  - { offset: 0x3F0B1, size: 0x8, addend: 0x0, symName: __Z9sortItemsRSt6vectorI10ItemHandleSaIS0_EE8SortAlgob, symObjAddr: 0x38, symBinAddr: 0x100012AC4, symSize: 0x68 }
  - { offset: 0x3F0FE, size: 0x8, addend: 0x0, symName: __Z14mergeSortItemsRSt6vectorI10ItemHandleSaIS0_EEb, symObjAddr: 0x1C, symBinAddr: 0x100012AA8, symSize: 0x1C }
  - { offset: 0x3F13C, size: 0x8, addend: 0x0, symName: __Z18insertionSortItemsRSt6vectorI10ItemHandleSaIS0_EEb, symObjAddr: 0x0, symBinAddr: 0x100012A8C, symSize: 0x1C }
...
